EXPORTS
	_Z16CreateTestSuiteLv @ 1 NONAME
	_Z24ImplementationGroupProxyRi @ 2 NONAME
	_ZN10RTelServer7ConnectEi @ 3 NONAME
	_ZN10RTelServerC1Ev @ 4 NONAME
	_ZN10RTelServerC2Ev @ 5 NONAME
	_ZN11CMusManager10SetUseCaseEN17MultimediaSharing11TMusUseCaseE @ 6 NONAME
	_ZN11CMusManager13AvailabilityLEv @ 7 NONAME
	_ZN11CMusManager13SetStartErrorEi @ 8 NONAME
	_ZN11CMusManager14HandleCommandLEN17MultimediaSharing12TCommandTypeE @ 9 NONAME
	_ZN11CMusManager15SetAvailabilityEi @ 10 NONAME
	_ZN11CMusManager16CancelMonitoringEv @ 11 NONAME
	_ZN11CMusManager16StopApplicationLEv @ 12 NONAME
	_ZN11CMusManager17HandleSipRequestLENS_12TRequestTypeE @ 13 NONAME
	_ZN11CMusManager17StartApplicationLEN17MultimediaSharing11TMusUseCaseE @ 14 NONAME
	_ZN11CMusManager20ExamineAvailabilityLEv @ 15 NONAME
	_ZN11CMusManager20MonitorAvailabilityLER14TRequestStatusRN17MultimediaSharing22TMusAvailabilityStatusE @ 16 NONAME
	_ZN11CMusManager4NewLEv @ 17 NONAME
	_ZN11CMusManager5NewLCEv @ 18 NONAME
	_ZN11CMusManager7UseCaseEv @ 19 NONAME
	_ZN11CRepository16StartTransactionENS_16TTransactionModeE @ 20 NONAME
	_ZN11CRepository17CommitTransactionERm @ 21 NONAME
	_ZN11CRepository3GetEmR5TDes8 @ 22 NONAME
	_ZN11CRepository3GetEmR6TDes16 @ 23 NONAME
	_ZN11CRepository3GetEmRi @ 24 NONAME
	_ZN11CRepository3SetEmRK6TDesC8 @ 25 NONAME
	_ZN11CRepository3SetEmRK7TDesC16 @ 26 NONAME
	_ZN11CRepository3SetEmi @ 27 NONAME
	_ZN11CRepository4NewLE4TUid @ 28 NONAME
	_ZN11CRepository5FindLEmmR6RArrayImE @ 29 NONAME
	_ZN11CRepository5NewLCE4TUid @ 30 NONAME
	_ZN11CRepository6CreateEmRK6TDesC8 @ 31 NONAME
	_ZN11CRepository6CreateEmi @ 32 NONAME
	_ZN11CRepository6DeleteEmmRm @ 33 NONAME
	_ZN11CRepository7FindEqLEmmRK6TDesC8R6RArrayImE @ 34 NONAME
	_ZN11CRepositoryD0Ev @ 35 NONAME
	_ZN11CRepositoryD1Ev @ 36 NONAME
	_ZN11CRepositoryD2Ev @ 37 NONAME
	_ZN11RMobileCall10ConstructLEv @ 38 NONAME
	_ZN11RMobileCall17TMobileCallInfoV1C1Ev @ 39 NONAME
	_ZN11RMobileCall17TMobileCallInfoV1C2Ev @ 40 NONAME
	_ZN11RMobileCall17TMobileCallInfoV3C1Ev @ 41 NONAME
	_ZN11RMobileCall17TMobileCallInfoV3C2Ev @ 42 NONAME
	_ZN11RMobileCall28TMobileCallRemotePartyInfoV1C1Ev @ 43 NONAME
	_ZN11RMobileCall28TMobileCallRemotePartyInfoV1C2Ev @ 44 NONAME
	_ZN11RMobileCall8DestructEv @ 45 NONAME
	_ZN11RMobileCallC1Ev @ 46 NONAME
	_ZN11RMobileCallC2Ev @ 47 NONAME
	_ZN11RMobileLine10ConstructLEv @ 48 NONAME
	_ZN11RMobileLine8DestructEv @ 49 NONAME
	_ZN11RMobileLineC1Ev @ 50 NONAME
	_ZN11RMobileLineC2Ev @ 51 NONAME
	_ZN12RMobilePhone10ConstructLEv @ 52 NONAME
	_ZN12RMobilePhone14TMobileAddressC1Ev @ 53 NONAME
	_ZN12RMobilePhone14TMobileAddressC2Ev @ 54 NONAME
	_ZN12RMobilePhone14TMultimodeTypeC1Ev @ 55 NONAME
	_ZN12RMobilePhone14TMultimodeTypeC2Ev @ 56 NONAME
	_ZN12RMobilePhone8DestructEv @ 57 NONAME
	_ZN12RMobilePhoneC1Ev @ 58 NONAME
	_ZN12RMobilePhoneC2Ev @ 59 NONAME
	_ZN18RTelSubSessionBaseC1Ev @ 60 NONAME
	_ZN18RTelSubSessionBaseC2Ev @ 61 NONAME
	_ZN21RMobileConferenceCall4OpenER12RMobilePhone @ 62 NONAME
	_ZN21RMobileConferenceCall5CloseEv @ 63 NONAME
	_ZN21RMobileConferenceCallC1Ev @ 64 NONAME
	_ZN21RMobileConferenceCallC2Ev @ 65 NONAME
	_ZN5RCall10ConstructLEv @ 66 NONAME
	_ZN5RCall16OpenExistingCallER5RLineRK7TDesC16 @ 67 NONAME
	_ZN5RCall5CloseEv @ 68 NONAME
	_ZN5RCall8DestructEv @ 69 NONAME
	_ZN5RCall9TCallInfoC1Ev @ 70 NONAME
	_ZN5RCall9TCallInfoC2Ev @ 71 NONAME
	_ZN5RCallC1Ev @ 72 NONAME
	_ZN5RCallC2Ev @ 73 NONAME
	_ZN5RLine10ConstructLEv @ 74 NONAME
	_ZN5RLine4OpenER6RPhoneRK7TDesC16 @ 75 NONAME
	_ZN5RLine5CloseEv @ 76 NONAME
	_ZN5RLine8DestructEv @ 77 NONAME
	_ZN5RLineC1Ev @ 78 NONAME
	_ZN5RLineC2Ev @ 79 NONAME
	_ZN6RPhone10ConstructLEv @ 80 NONAME
	_ZN6RPhone4OpenER10RTelServerRK7TDesC16 @ 81 NONAME
	_ZN6RPhone5CloseEv @ 82 NONAME
	_ZN6RPhone8DestructEv @ 83 NONAME
	_ZN6RPhoneC1Ev @ 84 NONAME
	_ZN6RPhoneC2Ev @ 85 NONAME
	_ZNK11RMobileCall15NotifyCallEventER14TRequestStatusRNS_16TMobileCallEventE @ 86 NONAME
	_ZNK11RMobileCall17GetMobileCallInfoER5TDes8 @ 87 NONAME
	_ZNK11RMobileCall19GetMobileCallStatusERNS_17TMobileCallStatusE @ 88 NONAME
	_ZNK11RMobileCall28NotifyMobileCallStatusChangeER14TRequestStatusRNS_17TMobileCallStatusE @ 89 NONAME
	_ZNK11RMobileLine28NotifyMobileLineStatusChangeER14TRequestStatusRN11RMobileCall17TMobileCallStatusE @ 90 NONAME
	_ZNK18RTelSubSessionBase18CancelAsyncRequestEi @ 91 NONAME
	_ZNK21RMobileConferenceCall19GetConferenceStatusERNS_23TMobileConferenceStatusE @ 92 NONAME
	_ZNK21RMobileConferenceCall21NotifyConferenceEventER14TRequestStatusRNS_22TMobileConferenceEventER4TBufILi128EE @ 93 NONAME
	_ZNK21RMobileConferenceCall28NotifyConferenceStatusChangeER14TRequestStatusRNS_23TMobileConferenceStatusE @ 94 NONAME
	_ZNK5RCall7GetInfoERNS_9TCallInfoE @ 95 NONAME
	_ZNK5RLine11GetCallInfoEiRNS_9TCallInfoE @ 96 NONAME
	_ZNK5RLine13EnumerateCallERi @ 97 NONAME
	_ZTI11CMusManager @ 98 NONAME ; #<TI>#
	_ZTI11CRepository @ 99 NONAME ; #<TI>#
	_ZTI11RMobileCall @ 100 NONAME ; #<TI>#
	_ZTI11RMobileLine @ 101 NONAME ; #<TI>#
	_ZTI12CMusAoPlugin @ 102 NONAME ; #<TI>#
	_ZTI12RMobilePhone @ 103 NONAME ; #<TI>#
	_ZTI15CMusCallMonitor @ 104 NONAME ; #<TI>#
	_ZTI18CMusPttCallMonitor @ 105 NONAME ; #<TI>#
	_ZTI19CMusCallMonitorBase @ 106 NONAME ; #<TI>#
	_ZTI19CMusCallMonitorMock @ 107 NONAME ; #<TI>#
	_ZTI19CMusPropertyMonitor @ 108 NONAME ; #<TI>#
	_ZTI20CMusCallEventMonitor @ 109 NONAME ; #<TI>#
	_ZTI21CMusCallStatusMonitor @ 110 NONAME ; #<TI>#
	_ZTI22CMusTsyPropertyMonitor @ 111 NONAME ; #<TI>#
	_ZTI25CMusCallConferenceMonitor @ 112 NONAME ; #<TI>#
	_ZTI30CMusCallConferenceEventMonitor @ 113 NONAME ; #<TI>#
	_ZTI5RCall @ 114 NONAME ; #<TI>#
	_ZTI5RLine @ 115 NONAME ; #<TI>#
	_ZTI6RPhone @ 116 NONAME ; #<TI>#
	_ZTV11CMusManager @ 117 NONAME ; #<VT>#
	_ZTV11CRepository @ 118 NONAME ; #<VT>#
	_ZTV11RMobileCall @ 119 NONAME ; #<VT>#
	_ZTV11RMobileLine @ 120 NONAME ; #<VT>#
	_ZTV12CMusAoPlugin @ 121 NONAME ; #<VT>#
	_ZTV12RMobilePhone @ 122 NONAME ; #<VT>#
	_ZTV15CMusCallMonitor @ 123 NONAME ; #<VT>#
	_ZTV18CMusPttCallMonitor @ 124 NONAME ; #<VT>#
	_ZTV19CMusCallMonitorBase @ 125 NONAME ; #<VT>#
	_ZTV19CMusCallMonitorMock @ 126 NONAME ; #<VT>#
	_ZTV19CMusPropertyMonitor @ 127 NONAME ; #<VT>#
	_ZTV20CMusCallEventMonitor @ 128 NONAME ; #<VT>#
	_ZTV21CMusCallStatusMonitor @ 129 NONAME ; #<VT>#
	_ZTV22CMusTsyPropertyMonitor @ 130 NONAME ; #<VT>#
	_ZTV25CMusCallConferenceMonitor @ 131 NONAME ; #<VT>#
	_ZTV30CMusCallConferenceEventMonitor @ 132 NONAME ; #<VT>#
	_ZTV5RCall @ 133 NONAME ; #<VT>#
	_ZTV5RLine @ 134 NONAME ; #<VT>#
	_ZTV6RPhone @ 135 NONAME ; #<VT>#

