EXPORTS
  ?CreateTestSuiteL@@YAPAVMEUnitTest@@XZ @ 1 NONAME ; class MEUnitTest * CreateTestSuiteL(void)
	?NewL@CAknGlobalMsgQuery@@SAPAV1@XZ @ 2 NONAME ; class CAknGlobalMsgQuery * CAknGlobalMsgQuery::NewL(void)
	?NewL@CAknGlobalConfirmationQuery@@SAPAV1@XZ @ 3 NONAME ; class CAknGlobalConfirmationQuery * CAknGlobalConfirmationQuery::NewL(void)
	?NewLC@CMusIndicatorApi@@SAPAV1@AAVMMusIndicatorObserver@@@Z @ 4 NONAME ; class CMusIndicatorApi * CMusIndicatorApi::NewLC(class MMusIndicatorObserver &)
	?DrawDeferred@CCoeControl@@QBEXXZ @ 5 NONAME ; void CCoeControl::DrawDeferred(void) const
	?SystemGc@CCoeControl@@QBEAAVCWindowGc@@XZ @ 6 NONAME ; class CWindowGc & CCoeControl::SystemGc(void) const
	?SetPenColor@CWindowGc@@UAEXABVTRgb@@@Z @ 7 NONAME ; void CWindowGc::SetPenColor(class TRgb const &)
	?ShowConfirmationQueryL@CAknGlobalConfirmationQuery@@QAEXAAVTRequestStatus@@ABVTDesC16@@HH1HHW4TTone@CAknQueryDialog@@H@Z @ 8 NONAME ; void CAknGlobalConfirmationQuery::ShowConfirmationQueryL(class TRequestStatus &, class TDesC16 const &, int, int, class TDesC16 const &, int, int, enum CAknQueryDialog::TTone, int)
	?CancelMsgQuery@CAknGlobalMsgQuery@@QAEXXZ @ 9 NONAME ; void CAknGlobalMsgQuery::CancelMsgQuery(void)
	?NewL@CMusIndicatorApi@@SAPAV1@AAVMMusIndicatorObserver@@@Z @ 10 NONAME ; class CMusIndicatorApi * CMusIndicatorApi::NewL(class MMusIndicatorObserver &)
	?DrawRoundRect@CWindowGc@@UAEXABVTRect@@ABVTSize@@@Z @ 11 NONAME ; void CWindowGc::DrawRoundRect(class TRect const &, class TSize const &)
	?ShowMsgQueryL@CAknGlobalMsgQuery@@QAEXAAVTRequestStatus@@ABVTDesC16@@H11HHW4TTone@CAknQueryDialog@@@Z @ 12 NONAME ; void CAknGlobalMsgQuery::ShowMsgQueryL(class TRequestStatus &, class TDesC16 const &, int, class TDesC16 const &, class TDesC16 const &, int, int, enum CAknQueryDialog::TTone)
	?SetPenStyle@CWindowGc@@UAEXW4TPenStyle@CGraphicsContext@@@Z @ 13 NONAME ; void CWindowGc::SetPenStyle(enum CGraphicsContext::TPenStyle)
	??1CAknGlobalMsgQuery@@UAE@XZ @ 14 NONAME ; CAknGlobalMsgQuery::~CAknGlobalMsgQuery(void)
	?ConfirmationQueryL@CMusIndicatorApi@@SAHW4TVsPopupQuery@1@@Z @ 15 NONAME ; int CMusIndicatorApi::ConfirmationQueryL(enum CMusIndicatorApi::TVsPopupQuery)
	?NewL@CMusIndicatorApi@@SAPAV1@XZ @ 16 NONAME ; class CMusIndicatorApi * CMusIndicatorApi::NewL(void)
	??1CAknGlobalConfirmationQuery@@UAE@XZ @ 17 NONAME ; CAknGlobalConfirmationQuery::~CAknGlobalConfirmationQuery(void)
	?NewLC@CAknGlobalConfirmationQuery@@SAPAV1@XZ @ 18 NONAME ; class CAknGlobalConfirmationQuery * CAknGlobalConfirmationQuery::NewLC(void)
	?SizeInPixels@CWsScreenDevice@@UBE?AVTSize@@XZ @ 19 NONAME ; class TSize CWsScreenDevice::SizeInPixels(void) const
	??1CWindowGc@@UAE@XZ @ 20 NONAME ; CWindowGc::~CWindowGc(void)
	?IndicateAvailabilityL@CMusIndicatorApi@@QAEXXZ @ 21 NONAME ; void CMusIndicatorApi::IndicateAvailabilityL(void)
	?ActivateL@CCoeControl@@UAEXXZ @ 22 NONAME ; void CCoeControl::ActivateL(void)
	?Start@CPeriodic@@QAEXVTTimeIntervalMicroSeconds32@@0VTCallBack@@@Z @ 23 NONAME ; void CPeriodic::Start(class TTimeIntervalMicroSeconds32, class TTimeIntervalMicroSeconds32, class TCallBack)
	?SetPenSize@CWindowGc@@UAEXABVTSize@@@Z @ 24 NONAME ; void CWindowGc::SetPenSize(class TSize const &)
	?Background@AknsDrawUtils@@SAHPAVMAknsSkinInstance@@PAVMAknsControlContext@@PBVCCoeControl@@AAVCWindowGc@@ABVTRect@@H@Z @ 25 NONAME ; int AknsDrawUtils::Background(class MAknsSkinInstance *, class MAknsControlContext *, class CCoeControl const *, class CWindowGc &, class TRect const &, int)
	?Clear@CWindowGc@@UAEXABVTRect@@@Z @ 26 NONAME ; void CWindowGc::Clear(class TRect const &)
	?NewLC@CAknGlobalMsgQuery@@SAPAV1@XZ @ 27 NONAME ; class CAknGlobalMsgQuery * CAknGlobalMsgQuery::NewLC(void)
	?ControlContext@AknsDrawUtils@@SAPAVMAknsControlContext@@PBVMObjectProvider@@@Z @ 28 NONAME ; class MAknsControlContext * AknsDrawUtils::ControlContext(class MObjectProvider const *)
	?CancelConfirmationQuery@CAknGlobalConfirmationQuery@@QAEXXZ @ 29 NONAME ; void CAknGlobalConfirmationQuery::CancelConfirmationQuery(void)
	?UseFont@CWindowGc@@UAEXPBVCFont@@@Z @ 30 NONAME ; void CWindowGc::UseFont(class CFont const *)
	?SetBrushStyle@CWindowGc@@UAEXW4TBrushStyle@CGraphicsContext@@@Z @ 31 NONAME ; void CWindowGc::SetBrushStyle(enum CGraphicsContext::TBrushStyle)
	?CreateWindowL@CCoeControl@@IAEXXZ @ 32 NONAME ; void CCoeControl::CreateWindowL(void)
	?DrawText@CWindowGc@@UAEXABVTDesC16@@ABVTPoint@@@Z @ 33 NONAME ; void CWindowGc::DrawText(class TDesC16 const &, class TPoint const &)
	?BitBltMasked@CWindowGc@@UAEXABVTPoint@@PBVCFbsBitmap@@ABVTRect@@1H@Z @ 34 NONAME ; void CWindowGc::BitBltMasked(class TPoint const &, class CFbsBitmap const *, class TRect const &, class CFbsBitmap const *, int)
	??0CWindowGc@@QAE@PAVCWsScreenDevice@@@Z @ 35 NONAME ; CWindowGc::CWindowGc(class CWsScreenDevice *)

