EXPORTS
	?CreateTestSuiteL@@YAPAVMEUnitTest@@XZ @ 1 NONAME ; class MEUnitTest * CreateTestSuiteL(void)
	??0RMobilePhone@@QAE@XZ @ 2 NONAME ; RMobilePhone::RMobilePhone(void)
	??0TMobileAddress@RMobilePhone@@QAE@XZ @ 3 NONAME ; RMobilePhone::TMobileAddress::TMobileAddress(void)
	??0TMobilePhoneBatteryInfoV1@RMobilePhone@@QAE@XZ @ 4 NONAME ; RMobilePhone::TMobilePhoneBatteryInfoV1::TMobilePhoneBatteryInfoV1(void)
	??0TMobilePhoneCBChangeV1@RMobilePhone@@QAE@XZ @ 5 NONAME ; RMobilePhone::TMobilePhoneCBChangeV1::TMobilePhoneCBChangeV1(void)
	??0TMobilePhoneCBInfoEntryV1@RMobilePhone@@QAE@XZ @ 6 NONAME ; RMobilePhone::TMobilePhoneCBInfoEntryV1::TMobilePhoneCBInfoEntryV1(void)
	??0TMobilePhoneCCBSEntryV1@RMobilePhone@@QAE@XZ @ 7 NONAME ; RMobilePhone::TMobilePhoneCCBSEntryV1::TMobilePhoneCCBSEntryV1(void)
	??0TMobilePhoneCFChangeV1@RMobilePhone@@QAE@XZ @ 8 NONAME ; RMobilePhone::TMobilePhoneCFChangeV1::TMobilePhoneCFChangeV1(void)
	??0TMobilePhoneCFInfoEntryV1@RMobilePhone@@QAE@XZ @ 9 NONAME ; RMobilePhone::TMobilePhoneCFInfoEntryV1::TMobilePhoneCFInfoEntryV1(void)
	??0TMobilePhoneCWInfoEntryV1@RMobilePhone@@QAE@XZ @ 10 NONAME ; RMobilePhone::TMobilePhoneCWInfoEntryV1::TMobilePhoneCWInfoEntryV1(void)
	??0TMobilePhoneCostInfoV1@RMobilePhone@@QAE@XZ @ 11 NONAME ; RMobilePhone::TMobilePhoneCostInfoV1::TMobilePhoneCostInfoV1(void)
	??0TMobilePhoneCspFileV1@RMobilePhone@@QAE@XZ @ 12 NONAME ; RMobilePhone::TMobilePhoneCspFileV1::TMobilePhoneCspFileV1(void)
	??0TMobilePhoneIdentityV1@RMobilePhone@@QAE@XZ @ 13 NONAME ; RMobilePhone::TMobilePhoneIdentityV1::TMobilePhoneIdentityV1(void)
	??0TMobilePhoneLocationAreaV1@RMobilePhone@@QAE@XZ @ 14 NONAME ; RMobilePhone::TMobilePhoneLocationAreaV1::TMobilePhoneLocationAreaV1(void)
	??0TMobilePhoneLockInfoV1@RMobilePhone@@QAE@XZ @ 15 NONAME ; RMobilePhone::TMobilePhoneLockInfoV1::TMobilePhoneLockInfoV1(void)
	??0TMobilePhoneMessageWaitingV1@RMobilePhone@@QAE@XZ @ 16 NONAME ; RMobilePhone::TMobilePhoneMessageWaitingV1::TMobilePhoneMessageWaitingV1(void)
	??0TMobilePhoneMulticallSettingsV1@RMobilePhone@@QAE@XZ @ 17 NONAME ; RMobilePhone::TMobilePhoneMulticallSettingsV1::TMobilePhoneMulticallSettingsV1(void)
	??0TMobilePhoneNITZ@RMobilePhone@@QAE@HW4TMonth@@HHHHH@Z @ 18 NONAME ; RMobilePhone::TMobilePhoneNITZ::TMobilePhoneNITZ(int, enum TMonth, int, int, int, int, int)
	??0TMobilePhoneNITZ@RMobilePhone@@QAE@XZ @ 19 NONAME ; RMobilePhone::TMobilePhoneNITZ::TMobilePhoneNITZ(void)
	??0TMobilePhoneNetworkInfoV1@RMobilePhone@@QAE@XZ @ 20 NONAME ; RMobilePhone::TMobilePhoneNetworkInfoV1::TMobilePhoneNetworkInfoV1(void)
	??0TMobilePhoneNetworkSelectionV1@RMobilePhone@@QAE@XZ @ 21 NONAME ; RMobilePhone::TMobilePhoneNetworkSelectionV1::TMobilePhoneNetworkSelectionV1(void)
	??0TMobilePhonePasswordChangeV1@RMobilePhone@@QAE@XZ @ 22 NONAME ; RMobilePhone::TMobilePhonePasswordChangeV1::TMobilePhonePasswordChangeV1(void)
	??0TMobilePhonePuctV1@RMobilePhone@@QAE@XZ @ 23 NONAME ; RMobilePhone::TMobilePhonePuctV1::TMobilePhonePuctV1(void)
	??0TMobilePhoneServiceTableV1@RMobilePhone@@QAE@XZ @ 24 NONAME ; RMobilePhone::TMobilePhoneServiceTableV1::TMobilePhoneServiceTableV1(void)
	??1CSIP@@UAE@XZ @ 25 NONAME ; CSIP::~CSIP(void)
	??1CSIPClientTransaction@@UAE@XZ @ 26 NONAME ; CSIPClientTransaction::~CSIPClientTransaction(void)
	??1CSIPConnection@@UAE@XZ @ 27 NONAME ; CSIPConnection::~CSIPConnection(void)
	??1CSIPManagedProfileRegistry@@UAE@XZ @ 28 NONAME ; CSIPManagedProfileRegistry::~CSIPManagedProfileRegistry(void)
	??1CSIPMessageElements@@UAE@XZ @ 29 NONAME ; CSIPMessageElements::~CSIPMessageElements(void)
	??1CSIPProfile@@UAE@XZ @ 30 NONAME ; CSIPProfile::~CSIPProfile(void)
	??1CSIPProfileRegistry@@UAE@XZ @ 31 NONAME ; CSIPProfileRegistry::~CSIPProfileRegistry(void)
	??1CSIPProfileRegistryBase@@UAE@XZ @ 32 NONAME ; CSIPProfileRegistryBase::~CSIPProfileRegistryBase(void)
	??1CSIPRequestElements@@UAE@XZ @ 33 NONAME ; CSIPRequestElements::~CSIPRequestElements(void)
	??1CSIPResponseElements@@UAE@XZ @ 34 NONAME ; CSIPResponseElements::~CSIPResponseElements(void)
	??1CSIPServerTransaction@@UAE@XZ @ 35 NONAME ; CSIPServerTransaction::~CSIPServerTransaction(void)
	??8CSIPTransactionBase@@QBEHABV0@@Z @ 36 NONAME ; int CSIPTransactionBase::operator==(class CSIPTransactionBase const &) const
	?AbortSecurityCode@RMobilePhone@@QBEHW4TMobilePhoneSecurityCode@1@@Z @ 37 NONAME ; int RMobilePhone::AbortSecurityCode(enum RMobilePhone::TMobilePhoneSecurityCode) const
	?AuthoritativeDelete@CConnMonDeleteConnection@@QBEHXZ @ 38 NONAME ; int CConnMonDeleteConnection::AuthoritativeDelete(void) const
	?AuthoritativeDelete@CConnMonDeleteSubConnection@@QBEHXZ @ 39 NONAME ; int CConnMonDeleteSubConnection::AuthoritativeDelete(void) const
	?Availability@CConnMonBearerAvailabilityChange@@QBEHXZ @ 40 NONAME ; int CConnMonBearerAvailabilityChange::Availability(void) const
	?Bearer@CConnMonBearerChange@@QBEHXZ @ 41 NONAME ; int CConnMonBearerChange::Bearer(void) const
	?CSeqHeader@CSIPRequestElements@@QBEPBVCSIPCSeqHeader@@XZ @ 42 NONAME ; class CSIPCSeqHeader const * CSIPRequestElements::CSeqHeader(void) const
	?CSeqHeader@CSIPResponseElements@@QBEPBVCSIPCSeqHeader@@XZ @ 43 NONAME ; class CSIPCSeqHeader const * CSIPResponseElements::CSeqHeader(void) const
	?CancelAllowed@CSIPClientTransaction@@QBEHXZ @ 44 NONAME ; int CSIPClientTransaction::CancelAllowed(void) const
	?CancelAsyncRequest@RConnectionMonitor@@QAEXH@Z @ 45 NONAME ; void RConnectionMonitor::CancelAsyncRequest(int)
	?CancelL@CSIPClientTransaction@@QAEPAV1@XZ @ 46 NONAME ; class CSIPClientTransaction * CSIPClientTransaction::CancelL(void)
	?CancelNotifications@RConnectionMonitor@@QAEXXZ @ 47 NONAME ; void RConnectionMonitor::CancelNotifications(void)
	?ChangeSecurityCode@RMobilePhone@@QBEXAAVTRequestStatus@@W4TMobilePhoneSecurityCode@1@ABVTMobilePhonePasswordChangeV1@1@@Z @ 48 NONAME ; void RMobilePhone::ChangeSecurityCode(class TRequestStatus &, enum RMobilePhone::TMobilePhoneSecurityCode, class RMobilePhone::TMobilePhonePasswordChangeV1 const &) const
	?ClearCostMeter@RMobilePhone@@QBEXAAVTRequestStatus@@W4TMobilePhoneCostMeters@1@@Z @ 49 NONAME ; void RMobilePhone::ClearCostMeter(class TRequestStatus &, enum RMobilePhone::TMobilePhoneCostMeters) const
	?Close@RConnectionMonitor@@QAEXXZ @ 50 NONAME ; void RConnectionMonitor::Close(void)
	?ConnectL@RConnectionMonitor@@QAEHXZ @ 51 NONAME ; int RConnectionMonitor::ConnectL(void)
	?Connection@CSIP@@QBEPAVCSIPConnection@@K@Z @ 52 NONAME ; class CSIPConnection * CSIP::Connection(unsigned long) const
	?ConnectionActivity@CConnMonConnectionActivityChange@@QBEHXZ @ 53 NONAME ; int CConnMonConnectionActivityChange::ConnectionActivity(void) const
	?ConnectionId@CConnMonEventBase@@QBEIXZ @ 54 NONAME ; unsigned int CConnMonEventBase::ConnectionId(void) const
	?ConnectionStatus@CConnMonConnectionStatusChange@@QBEHXZ @ 55 NONAME ; int CConnMonConnectionStatusChange::ConnectionStatus(void) const
	?ConstructL@RMobilePhone@@MAEXXZ @ 56 NONAME ; void RMobilePhone::ConstructL(void)
	?Content@CSIPMessageElements@@QBEABVTDesC8@@XZ @ 57 NONAME ; class TDesC8 const & CSIPMessageElements::Content(void) const
	?ContentType@CSIPMessageElements@@QBEPBVCSIPContentTypeHeader@@XZ @ 58 NONAME ; class CSIPContentTypeHeader const * CSIPMessageElements::ContentType(void) const
	?ContinueDTMFStringSending@RMobilePhone@@QBEHH@Z @ 59 NONAME ; int RMobilePhone::ContinueDTMFStringSending(int) const
	?Data@CConnMonGenericEvent@@QBEPAXXZ @ 60 NONAME ; void * CConnMonGenericEvent::Data(void) const
	?DefaultProfileL@CSIPProfileRegistryBase@@QAEPAVCSIPProfile@@XZ @ 61 NONAME ; class CSIPProfile * CSIPProfileRegistryBase::DefaultProfileL(void)
	?Destruct@RMobilePhone@@MAEXXZ @ 62 NONAME ; void RMobilePhone::Destruct(void)
	?Disable@CSIPProfileRegistry@@QAEHAAVCSIPProfile@@@Z @ 63 NONAME ; int CSIPProfileRegistry::Disable(class CSIPProfile &)
	?DownlinkData@CConnMonDeleteConnection@@QBEIXZ @ 64 NONAME ; unsigned int CConnMonDeleteConnection::DownlinkData(void) const
	?DownlinkData@CConnMonDeleteSubConnection@@QBEIXZ @ 65 NONAME ; unsigned int CConnMonDeleteSubConnection::DownlinkData(void) const
	?DownlinkData@CConnMonDownlinkDataThreshold@@QBEIXZ @ 66 NONAME ; unsigned int CConnMonDownlinkDataThreshold::DownlinkData(void) const
	?EnableL@CSIPProfileRegistry@@QAEXAAVCSIPProfile@@AAVMSIPConnectionObserver@@@Z @ 67 NONAME ; void CSIPProfileRegistry::EnableL(class CSIPProfile &, class MSIPConnectionObserver &)
	?EventType@CConnMonEventBase@@QBEHXZ @ 68 NONAME ; int CConnMonEventBase::EventType(void) const
	?ExtensionId@TMultimodeType@RMobilePhone@@QBEHXZ @ 69 NONAME ; int RMobilePhone::TMultimodeType::ExtensionId(void) const
	?ExtractContent@CSIPMessageElements@@QAEPAVHBufC8@@XZ @ 70 NONAME ; class HBufC8 * CSIPMessageElements::ExtractContent(void)
	?FromHeader@CSIPRequestElements@@QBEPBVCSIPFromHeader@@XZ @ 71 NONAME ; class CSIPFromHeader const * CSIPRequestElements::FromHeader(void) const
	?FromHeader@CSIPResponseElements@@QBEPBVCSIPFromHeader@@XZ @ 72 NONAME ; class CSIPFromHeader const * CSIPResponseElements::FromHeader(void) const
	?GetALSLine@RMobilePhone@@QBEHAAW4TMobilePhoneALSLine@1@@Z @ 73 NONAME ; int RMobilePhone::GetALSLine(enum RMobilePhone::TMobilePhoneALSLine &) const
	?GetAlternatingCallCaps@RMobilePhone@@QBEHAAK@Z @ 74 NONAME ; int RMobilePhone::GetAlternatingCallCaps(unsigned long &) const
	?GetAlternatingCallMode@RMobilePhone@@QBEHAAW4TMobilePhoneAlternatingCallMode@1@AAW4TMobileService@1@@Z @ 75 NONAME ; int RMobilePhone::GetAlternatingCallMode(enum RMobilePhone::TMobilePhoneAlternatingCallMode &, enum RMobilePhone::TMobileService &) const
	?GetBatteryCaps@RMobilePhone@@QBEHAAK@Z @ 76 NONAME ; int RMobilePhone::GetBatteryCaps(unsigned long &) const
	?GetBatteryInfo@RMobilePhone@@QBEXAAVTRequestStatus@@AAVTMobilePhoneBatteryInfoV1@1@@Z @ 77 NONAME ; void RMobilePhone::GetBatteryInfo(class TRequestStatus &, class RMobilePhone::TMobilePhoneBatteryInfoV1 &) const
	?GetBoolAttribute@RConnectionMonitor@@QAEXIIIAAHAAVTRequestStatus@@@Z @ 78 NONAME ; void RConnectionMonitor::GetBoolAttribute(unsigned int, unsigned int, unsigned int, int &, class TRequestStatus &)
	?GetCCBSStatus@RMobilePhone@@QBEXAAVTRequestStatus@@AAW4TMobilePhoneCCBSStatus@1@W4TMobileInfoLocation@1@@Z @ 79 NONAME ; void RMobilePhone::GetCCBSStatus(class TRequestStatus &, enum RMobilePhone::TMobilePhoneCCBSStatus &, enum RMobilePhone::TMobileInfoLocation) const
	?GetCallServiceCaps@RMobilePhone@@QBEHAAK@Z @ 80 NONAME ; int RMobilePhone::GetCallServiceCaps(unsigned long &) const
	?GetConnectionCount@RConnectionMonitor@@QAEXAAIAAVTRequestStatus@@@Z @ 81 NONAME ; void RConnectionMonitor::GetConnectionCount(unsigned int &, class TRequestStatus &)
	?GetConnectionInfo@RConnectionMonitor@@QBEHIAAI0@Z @ 82 NONAME ; int RConnectionMonitor::GetConnectionInfo(unsigned int, unsigned int &, unsigned int &) const
	?GetCostCaps@RMobilePhone@@QBEHAAK@Z @ 83 NONAME ; int RMobilePhone::GetCostCaps(unsigned long &) const
	?GetCostInfo@RMobilePhone@@QBEXAAVTRequestStatus@@AAVTDes8@@@Z @ 84 NONAME ; void RMobilePhone::GetCostInfo(class TRequestStatus &, class TDes8 &) const
	?GetCurrentMode@RMobilePhone@@QBEHAAW4TMobilePhoneNetworkMode@1@@Z @ 85 NONAME ; int RMobilePhone::GetCurrentMode(enum RMobilePhone::TMobilePhoneNetworkMode &) const
	?GetCurrentNetwork@RMobilePhone@@QBEXAAVTRequestStatus@@AAVTDes8@@AAVTMobilePhoneLocationAreaV1@1@@Z @ 86 NONAME ; void RMobilePhone::GetCurrentNetwork(class TRequestStatus &, class TDes8 &, class RMobilePhone::TMobilePhoneLocationAreaV1 &) const
	?GetCustomerServiceProfile@RMobilePhone@@QBEXAAVTRequestStatus@@AAVTDes8@@@Z @ 87 NONAME ; void RMobilePhone::GetCustomerServiceProfile(class TRequestStatus &, class TDes8 &) const
	?GetDTMFCaps@RMobilePhone@@QBEHAAK@Z @ 88 NONAME ; int RMobilePhone::GetDTMFCaps(unsigned long &) const
	?GetDefaultPrivacy@RMobilePhone@@QBEHAAW4TMobilePhonePrivacy@1@@Z @ 89 NONAME ; int RMobilePhone::GetDefaultPrivacy(enum RMobilePhone::TMobilePhonePrivacy &) const
	?GetFdnStatus@RMobilePhone@@QBEHAAW4TMobilePhoneFdnStatus@1@@Z @ 90 NONAME ; int RMobilePhone::GetFdnStatus(enum RMobilePhone::TMobilePhoneFdnStatus &) const
	?GetFeatureCode@RMobilePhone@@QBEXAAVTRequestStatus@@AAVTDes16@@W4TMobilePhoneNetworkService@1@W4TMobilePhoneServiceAction@1@@Z @ 91 NONAME ; void RMobilePhone::GetFeatureCode(class TRequestStatus &, class TDes16 &, enum RMobilePhone::TMobilePhoneNetworkService, enum RMobilePhone::TMobilePhoneServiceAction) const
	?GetHomeNetwork@RMobilePhone@@QBEXAAVTRequestStatus@@AAVTDes8@@@Z @ 92 NONAME ; void RMobilePhone::GetHomeNetwork(class TRequestStatus &, class TDes8 &) const
	?GetIccAccessCaps@RMobilePhone@@QBEHAAK@Z @ 93 NONAME ; int RMobilePhone::GetIccAccessCaps(unsigned long &) const
	?GetIccMessageWaitingIndicators@RMobilePhone@@QBEXAAVTRequestStatus@@AAVTDes8@@@Z @ 94 NONAME ; void RMobilePhone::GetIccMessageWaitingIndicators(class TRequestStatus &, class TDes8 &) const
	?GetIdentityCaps@RMobilePhone@@QBEHAAK@Z @ 95 NONAME ; int RMobilePhone::GetIdentityCaps(unsigned long &) const
	?GetIdentityServiceStatus@RMobilePhone@@QBEXAAVTRequestStatus@@W4TMobilePhoneIdService@1@AAW4TMobilePhoneIdServiceStatus@1@W4TMobileInfoLocation@1@@Z @ 96 NONAME ; void RMobilePhone::GetIdentityServiceStatus(class TRequestStatus &, enum RMobilePhone::TMobilePhoneIdService, enum RMobilePhone::TMobilePhoneIdServiceStatus &, enum RMobilePhone::TMobileInfoLocation) const
	?GetIncomingCallType@RMobilePhone@@QBEXAAVTRequestStatus@@AAW4TMobilePhoneIncomingCallType@1@AAVTDes8@@@Z @ 97 NONAME ; void RMobilePhone::GetIncomingCallType(class TRequestStatus &, enum RMobilePhone::TMobilePhoneIncomingCallType &, class TDes8 &) const
	?GetIndicator@RMobilePhone@@QBEXAAVTRequestStatus@@AAK@Z @ 98 NONAME ; void RMobilePhone::GetIndicator(class TRequestStatus &, unsigned long &) const
	?GetIndicatorCaps@RMobilePhone@@QBEHAAK0@Z @ 99 NONAME ; int RMobilePhone::GetIndicatorCaps(unsigned long &, unsigned long &) const
	?GetIntAttribute@RConnectionMonitor@@QAEXIIIAAHAAVTRequestStatus@@@Z @ 100 NONAME ; void RConnectionMonitor::GetIntAttribute(unsigned int, unsigned int, unsigned int, int &, class TRequestStatus &)
	?GetLockInfo@RMobilePhone@@QBEXAAVTRequestStatus@@W4TMobilePhoneLock@1@AAVTDes8@@@Z @ 101 NONAME ; void RMobilePhone::GetLockInfo(class TRequestStatus &, enum RMobilePhone::TMobilePhoneLock, class TDes8 &) const
	?GetMulticallParams@RMobilePhone@@QBEXAAVTRequestStatus@@AAVTDes8@@@Z @ 102 NONAME ; void RMobilePhone::GetMulticallParams(class TRequestStatus &, class TDes8 &) const
	?GetMultimodeAPIVersion@RMobilePhone@@QBEHAAH@Z @ 103 NONAME ; int RMobilePhone::GetMultimodeAPIVersion(int &) const
	?GetMultimodeCaps@RMobilePhone@@QBEHAAK@Z @ 104 NONAME ; int RMobilePhone::GetMultimodeCaps(unsigned long &) const
	?GetNITZInfo@RMobilePhone@@QBEHAAVTMobilePhoneNITZ@1@@Z @ 105 NONAME ; int RMobilePhone::GetNITZInfo(class RMobilePhone::TMobilePhoneNITZ &) const
	?GetNetworkCaps@RMobilePhone@@QBEHAAK@Z @ 106 NONAME ; int RMobilePhone::GetNetworkCaps(unsigned long &) const
	?GetNetworkRegistrationStatus@RMobilePhone@@QBEXAAVTRequestStatus@@AAW4TMobilePhoneRegistrationStatus@1@@Z @ 107 NONAME ; void RMobilePhone::GetNetworkRegistrationStatus(class TRequestStatus &, enum RMobilePhone::TMobilePhoneRegistrationStatus &) const
	?GetNetworkSelectionSetting@RMobilePhone@@QBEHAAVTDes8@@@Z @ 108 NONAME ; int RMobilePhone::GetNetworkSelectionSetting(class TDes8 &) const
	?GetParameter@CSIPProfile@@QBEHKAAH@Z @ 109 NONAME ; int CSIPProfile::GetParameter(unsigned long, int &) const
	?GetParameter@CSIPProfile@@QBEHKAAK@Z @ 110 NONAME ; int CSIPProfile::GetParameter(unsigned long, unsigned long &) const
	?GetParameter@CSIPProfile@@QBEHKAAPBVMDesC8Array@@@Z @ 111 NONAME ; int CSIPProfile::GetParameter(unsigned long, class MDesC8Array const * &) const
	?GetParameter@CSIPProfile@@QBEHKAAPBVTDesC8@@@Z @ 112 NONAME ; int CSIPProfile::GetParameter(unsigned long, class TDesC8 const * &) const
	?GetPckgAttribute@RConnectionMonitor@@QBEXIIIAAVTDes16@@AAVTRequestStatus@@@Z @ 113 NONAME ; void RConnectionMonitor::GetPckgAttribute(unsigned int, unsigned int, unsigned int, class TDes16 &, class TRequestStatus &) const
	?GetPckgAttribute@RConnectionMonitor@@QBEXIIIAAVTDes8@@AAVTRequestStatus@@@Z @ 114 NONAME ; void RConnectionMonitor::GetPckgAttribute(unsigned int, unsigned int, unsigned int, class TDes8 &, class TRequestStatus &) const
	?GetPhoneId@RMobilePhone@@QBEXAAVTRequestStatus@@AAVTMobilePhoneIdentityV1@1@@Z @ 115 NONAME ; void RMobilePhone::GetPhoneId(class TRequestStatus &, class RMobilePhone::TMobilePhoneIdentityV1 &) const
	?GetPhoneStoreInfo@RMobilePhone@@QBEXAAVTRequestStatus@@AAVTDes8@@ABVTDesC16@@@Z @ 116 NONAME ; void RMobilePhone::GetPhoneStoreInfo(class TRequestStatus &, class TDes8 &, class TDesC16 const &) const
	?GetSecurityCaps@RMobilePhone@@QBEHAAK@Z @ 117 NONAME ; int RMobilePhone::GetSecurityCaps(unsigned long &) const
	?GetServiceTable@RMobilePhone@@QBEXAAVTRequestStatus@@W4TMobilePhoneServiceTable@1@AAVTDes8@@@Z @ 118 NONAME ; void RMobilePhone::GetServiceTable(class TRequestStatus &, enum RMobilePhone::TMobilePhoneServiceTable, class TDes8 &) const
	?GetSignalCaps@RMobilePhone@@QBEHAAK@Z @ 119 NONAME ; int RMobilePhone::GetSignalCaps(unsigned long &) const
	?GetSignalStrength@RMobilePhone@@QBEXAAVTRequestStatus@@AAJAAC@Z @ 120 NONAME ; void RMobilePhone::GetSignalStrength(class TRequestStatus &, long &, signed char &) const
	?GetStringAttribute@RConnectionMonitor@@QBEXIIIAAVTDes16@@AAVTRequestStatus@@@Z @ 121 NONAME ; void RConnectionMonitor::GetStringAttribute(unsigned int, unsigned int, unsigned int, class TDes16 &, class TRequestStatus &) const
	?GetSubConnectionInfo@RConnectionMonitor@@QBEHIIAAI@Z @ 122 NONAME ; int RConnectionMonitor::GetSubConnectionInfo(unsigned int, unsigned int, unsigned int &) const
	?GetSubscriberId@RMobilePhone@@QBEXAAVTRequestStatus@@AAV?$TBuf@$0P@@@@Z @ 123 NONAME ; void RMobilePhone::GetSubscriberId(class TRequestStatus &, class TBuf<15> &) const
	?GetUUSSetting@RMobilePhone@@QBEXAAVTRequestStatus@@AAW4TMobilePhoneUUSSetting@1@@Z @ 124 NONAME ; void RMobilePhone::GetUUSSetting(class TRequestStatus &, enum RMobilePhone::TMobilePhoneUUSSetting &) const
	?GetUintAttribute@RConnectionMonitor@@QAEXIIIAAIAAVTRequestStatus@@@Z @ 125 NONAME ; void RConnectionMonitor::GetUintAttribute(unsigned int, unsigned int, unsigned int, unsigned int &, class TRequestStatus &)
	?IapAvailability@CConnMonIapAvailabilityChange@@QBE?AVTConnMonIapInfo@@XZ @ 126 NONAME ; class TConnMonIapInfo CConnMonIapAvailabilityChange::IapAvailability(void) const
	?IapId@CSIPConnection@@QBEKXZ @ 127 NONAME ; unsigned long CSIPConnection::IapId(void) const
	?ImplementationGroupProxy@@YAPBUTImplementationProxy@@AAH@Z @ 128 NONAME ; struct TImplementationProxy const * ImplementationGroupProxy(int &)
	?IsEnabled@CSIPProfileRegistry@@QBEHABVCSIPProfile@@@Z @ 129 NONAME ; int CSIPProfileRegistry::IsEnabled(class CSIPProfile const &) const
	?IsSIPClientTransaction@CSIPTransactionBase@@QBEHXZ @ 130 NONAME ; int CSIPTransactionBase::IsSIPClientTransaction(void) const
	?IsSigCompSupportedL@CSIP@@QBEHXZ @ 131 NONAME ; int CSIP::IsSigCompSupportedL(void) const
	?LastRegistrationError@CSIPProfileRegistryBase@@QBEHABVCSIPProfile@@@Z @ 132 NONAME ; int CSIPProfileRegistryBase::LastRegistrationError(class CSIPProfile const &) const
	?MessageElements@CSIPRequestElements@@QAEAAVCSIPMessageElements@@XZ @ 133 NONAME ; class CSIPMessageElements & CSIPRequestElements::MessageElements(void)
	?MessageElements@CSIPRequestElements@@QBEABVCSIPMessageElements@@XZ @ 134 NONAME ; class CSIPMessageElements const & CSIPRequestElements::MessageElements(void) const
	?MessageElements@CSIPResponseElements@@QAEAAVCSIPMessageElements@@XZ @ 135 NONAME ; class CSIPMessageElements & CSIPResponseElements::MessageElements(void)
	?MessageElements@CSIPResponseElements@@QBEABVCSIPMessageElements@@XZ @ 136 NONAME ; class CSIPMessageElements const & CSIPResponseElements::MessageElements(void) const
	?Method@CSIPRequestElements@@QBE?AVRStringF@@XZ @ 137 NONAME ; class RStringF CSIPRequestElements::Method(void) const
	?NegotiatedSecurityMechanismL@CSIP@@QAEPAVHBufC8@@ABVTDesC8@@@Z @ 138 NONAME ; class HBufC8 * CSIP::NegotiatedSecurityMechanismL(class TDesC8 const &)
	?NetworkStatus@CConnMonNetworkStatusChange@@QBEHXZ @ 139 NONAME ; int CConnMonNetworkStatusChange::NetworkStatus(void) const
	?NewL@CSIP@@SAPAV1@ABVTUid@@AAVMSIPObserver@@@Z @ 140 NONAME ; class CSIP * CSIP::NewL(class TUid const &, class MSIPObserver &)
	?NewL@CSIPClientTransaction@@SAPAV1@VRStringF@@@Z @ 141 NONAME ; class CSIPClientTransaction * CSIPClientTransaction::NewL(class RStringF)
	?NewL@CSIPConnection@@SAPAV1@AAVCSIP@@KAAVMSIPConnectionObserver@@@Z @ 142 NONAME ; class CSIPConnection * CSIPConnection::NewL(class CSIP &, unsigned long, class MSIPConnectionObserver &)
	?NewL@CSIPManagedProfileRegistry@@SAPAV1@AAVMSIPProfileRegistryObserver@@@Z @ 143 NONAME ; class CSIPManagedProfileRegistry * CSIPManagedProfileRegistry::NewL(class MSIPProfileRegistryObserver &)
	?NewL@CSIPMessageElements@@SAPAV1@XZ @ 144 NONAME ; class CSIPMessageElements * CSIPMessageElements::NewL(void)
	?NewL@CSIPProfileRegistry@@SAPAV1@AAVCSIP@@AAVMSIPProfileRegistryObserver@@@Z @ 145 NONAME ; class CSIPProfileRegistry * CSIPProfileRegistry::NewL(class CSIP &, class MSIPProfileRegistryObserver &)
	?NewL@CSIPRequestElements@@SAPAV1@PAVCUri8@@@Z @ 146 NONAME ; class CSIPRequestElements * CSIPRequestElements::NewL(class CUri8 *)
	?NewL@CSIPResponseElements@@SAPAV1@IVRStringF@@@Z @ 147 NONAME ; class CSIPResponseElements * CSIPResponseElements::NewL(unsigned int, class RStringF)
	?NewL@CSIPServerTransaction@@SAPAV1@VRStringF@@@Z @ 148 NONAME ; class CSIPServerTransaction * CSIPServerTransaction::NewL(class RStringF)
	?NewLC@CSIP@@SAPAV1@ABVTUid@@AAVMSIPObserver@@@Z @ 149 NONAME ; class CSIP * CSIP::NewLC(class TUid const &, class MSIPObserver &)
	?NewLC@CSIPManagedProfileRegistry@@SAPAV1@AAVMSIPProfileRegistryObserver@@@Z @ 150 NONAME ; class CSIPManagedProfileRegistry * CSIPManagedProfileRegistry::NewLC(class MSIPProfileRegistryObserver &)
	?NewLC@CSIPMessageElements@@SAPAV1@XZ @ 151 NONAME ; class CSIPMessageElements * CSIPMessageElements::NewLC(void)
	?NewLC@CSIPProfileRegistry@@SAPAV1@AAVCSIP@@AAVMSIPProfileRegistryObserver@@@Z @ 152 NONAME ; class CSIPProfileRegistry * CSIPProfileRegistry::NewLC(class CSIP &, class MSIPProfileRegistryObserver &)
	?NewLC@CSIPRequestElements@@SAPAV1@PAVCUri8@@@Z @ 153 NONAME ; class CSIPRequestElements * CSIPRequestElements::NewLC(class CUri8 *)
	?NewLC@CSIPResponseElements@@SAPAV1@IVRStringF@@@Z @ 154 NONAME ; class CSIPResponseElements * CSIPResponseElements::NewLC(unsigned int, class RStringF)
	?NotifyALSLineChange@RMobilePhone@@QBEXAAVTRequestStatus@@AAW4TMobilePhoneALSLine@1@@Z @ 155 NONAME ; void RMobilePhone::NotifyALSLineChange(class TRequestStatus &, enum RMobilePhone::TMobilePhoneALSLine &) const
	?NotifyAlternatingCallCapsChange@RMobilePhone@@QBEXAAVTRequestStatus@@AAK@Z @ 156 NONAME ; void RMobilePhone::NotifyAlternatingCallCapsChange(class TRequestStatus &, unsigned long &) const
	?NotifyAlternatingCallModeChange@RMobilePhone@@QBEXAAVTRequestStatus@@AAW4TMobilePhoneAlternatingCallMode@1@AAW4TMobileService@1@@Z @ 157 NONAME ; void RMobilePhone::NotifyAlternatingCallModeChange(class TRequestStatus &, enum RMobilePhone::TMobilePhoneAlternatingCallMode &, enum RMobilePhone::TMobileService &) const
	?NotifyBatteryInfoChange@RMobilePhone@@QBEXAAVTRequestStatus@@AAVTMobilePhoneBatteryInfoV1@1@@Z @ 158 NONAME ; void RMobilePhone::NotifyBatteryInfoChange(class TRequestStatus &, class RMobilePhone::TMobilePhoneBatteryInfoV1 &) const
	?NotifyCCBSStatusChange@RMobilePhone@@QBEXAAVTRequestStatus@@AAW4TMobilePhoneCCBSStatus@1@@Z @ 159 NONAME ; void RMobilePhone::NotifyCCBSStatusChange(class TRequestStatus &, enum RMobilePhone::TMobilePhoneCCBSStatus &) const
	?NotifyCallBarringStatusChange@RMobilePhone@@QBEXAAVTRequestStatus@@AAW4TMobilePhoneCBCondition@1@@Z @ 160 NONAME ; void RMobilePhone::NotifyCallBarringStatusChange(class TRequestStatus &, enum RMobilePhone::TMobilePhoneCBCondition &) const
	?NotifyCallForwardingActive@RMobilePhone@@QBEXAAVTRequestStatus@@AAW4TMobileService@1@AAW4TMobilePhoneCFActive@1@@Z @ 161 NONAME ; void RMobilePhone::NotifyCallForwardingActive(class TRequestStatus &, enum RMobilePhone::TMobileService &, enum RMobilePhone::TMobilePhoneCFActive &) const
	?NotifyCallForwardingStatusChange@RMobilePhone@@QBEXAAVTRequestStatus@@AAW4TMobilePhoneCFCondition@1@@Z @ 162 NONAME ; void RMobilePhone::NotifyCallForwardingStatusChange(class TRequestStatus &, enum RMobilePhone::TMobilePhoneCFCondition &) const
	?NotifyCallServiceCapsChange@RMobilePhone@@QBEXAAVTRequestStatus@@AAK@Z @ 163 NONAME ; void RMobilePhone::NotifyCallServiceCapsChange(class TRequestStatus &, unsigned long &) const
	?NotifyCallWaitingStatusChange@RMobilePhone@@QBEXAAVTRequestStatus@@AAVTDes8@@@Z @ 164 NONAME ; void RMobilePhone::NotifyCallWaitingStatusChange(class TRequestStatus &, class TDes8 &) const
	?NotifyCostCapsChange@RMobilePhone@@QBEXAAVTRequestStatus@@AAK@Z @ 165 NONAME ; void RMobilePhone::NotifyCostCapsChange(class TRequestStatus &, unsigned long &) const
	?NotifyCostInfoChange@RMobilePhone@@QBEXAAVTRequestStatus@@AAVTDes8@@@Z @ 166 NONAME ; void RMobilePhone::NotifyCostInfoChange(class TRequestStatus &, class TDes8 &) const
	?NotifyCurrentNetworkChange@RMobilePhone@@QBEXAAVTRequestStatus@@AAVTDes8@@AAVTMobilePhoneLocationAreaV1@1@@Z @ 167 NONAME ; void RMobilePhone::NotifyCurrentNetworkChange(class TRequestStatus &, class TDes8 &, class RMobilePhone::TMobilePhoneLocationAreaV1 &) const
	?NotifyDTMFCapsChange@RMobilePhone@@QBEXAAVTRequestStatus@@AAK@Z @ 168 NONAME ; void RMobilePhone::NotifyDTMFCapsChange(class TRequestStatus &, unsigned long &) const
	?NotifyDefaultPrivacyChange@RMobilePhone@@QBEXAAVTRequestStatus@@AAW4TMobilePhonePrivacy@1@@Z @ 169 NONAME ; void RMobilePhone::NotifyDefaultPrivacyChange(class TRequestStatus &, enum RMobilePhone::TMobilePhonePrivacy &) const
	?NotifyEventL@RConnectionMonitor@@QAEHAAVMConnectionMonitorObserver@@@Z @ 170 NONAME ; int RConnectionMonitor::NotifyEventL(class MConnectionMonitorObserver &)
	?NotifyFdnStatusChange@RMobilePhone@@QBEXAAVTRequestStatus@@AAW4TMobilePhoneFdnStatus@1@@Z @ 171 NONAME ; void RMobilePhone::NotifyFdnStatusChange(class TRequestStatus &, enum RMobilePhone::TMobilePhoneFdnStatus &) const
	?NotifyIccAccessCapsChange@RMobilePhone@@QBEXAAVTRequestStatus@@AAK@Z @ 172 NONAME ; void RMobilePhone::NotifyIccAccessCapsChange(class TRequestStatus &, unsigned long &) const
	?NotifyIccMessageWaitingIndicatorsChange@RMobilePhone@@QBEXAAVTRequestStatus@@AAVTDes8@@@Z @ 173 NONAME ; void RMobilePhone::NotifyIccMessageWaitingIndicatorsChange(class TRequestStatus &, class TDes8 &) const
	?NotifyIncomingCallTypeChange@RMobilePhone@@QBEXAAVTRequestStatus@@AAW4TMobilePhoneIncomingCallType@1@AAVTDes8@@@Z @ 174 NONAME ; void RMobilePhone::NotifyIncomingCallTypeChange(class TRequestStatus &, enum RMobilePhone::TMobilePhoneIncomingCallType &, class TDes8 &) const
	?NotifyIndicatorChange@RMobilePhone@@QBEXAAVTRequestStatus@@AAK@Z @ 175 NONAME ; void RMobilePhone::NotifyIndicatorChange(class TRequestStatus &, unsigned long &) const
	?NotifyLockInfoChange@RMobilePhone@@QBEXAAVTRequestStatus@@AAW4TMobilePhoneLock@1@AAVTDes8@@@Z @ 176 NONAME ; void RMobilePhone::NotifyLockInfoChange(class TRequestStatus &, enum RMobilePhone::TMobilePhoneLock &, class TDes8 &) const
	?NotifyMessageWaiting@RMobilePhone@@QBEXAAVTRequestStatus@@AAH@Z @ 177 NONAME ; void RMobilePhone::NotifyMessageWaiting(class TRequestStatus &, int &) const
	?NotifyModeChange@RMobilePhone@@QBEXAAVTRequestStatus@@AAW4TMobilePhoneNetworkMode@1@@Z @ 178 NONAME ; void RMobilePhone::NotifyModeChange(class TRequestStatus &, enum RMobilePhone::TMobilePhoneNetworkMode &) const
	?NotifyMulticallParamsChange@RMobilePhone@@QBEXAAVTRequestStatus@@AAVTDes8@@@Z @ 179 NONAME ; void RMobilePhone::NotifyMulticallParamsChange(class TRequestStatus &, class TDes8 &) const
	?NotifyNITZInfoChange@RMobilePhone@@QBEXAAVTRequestStatus@@AAVTMobilePhoneNITZ@1@@Z @ 180 NONAME ; void RMobilePhone::NotifyNITZInfoChange(class TRequestStatus &, class RMobilePhone::TMobilePhoneNITZ &) const
	?NotifyNetworkRegistrationStatusChange@RMobilePhone@@QBEXAAVTRequestStatus@@AAW4TMobilePhoneRegistrationStatus@1@@Z @ 181 NONAME ; void RMobilePhone::NotifyNetworkRegistrationStatusChange(class TRequestStatus &, enum RMobilePhone::TMobilePhoneRegistrationStatus &) const
	?NotifyNetworkSelectionSettingChange@RMobilePhone@@QBEXAAVTRequestStatus@@AAVTDes8@@@Z @ 182 NONAME ; void RMobilePhone::NotifyNetworkSelectionSettingChange(class TRequestStatus &, class TDes8 &) const
	?NotifySecurityCapsChange@RMobilePhone@@QBEXAAVTRequestStatus@@AAK@Z @ 183 NONAME ; void RMobilePhone::NotifySecurityCapsChange(class TRequestStatus &, unsigned long &) const
	?NotifySecurityEvent@RMobilePhone@@QBEXAAVTRequestStatus@@AAW4TMobilePhoneSecurityEvent@1@@Z @ 184 NONAME ; void RMobilePhone::NotifySecurityEvent(class TRequestStatus &, enum RMobilePhone::TMobilePhoneSecurityEvent &) const
	?NotifySignalStrengthChange@RMobilePhone@@QBEXAAVTRequestStatus@@AAJAAC@Z @ 185 NONAME ; void RMobilePhone::NotifySignalStrengthChange(class TRequestStatus &, long &, signed char &) const
	?NotifyStopInDTMFString@RMobilePhone@@QBEXAAVTRequestStatus@@@Z @ 186 NONAME ; void RMobilePhone::NotifyStopInDTMFString(class TRequestStatus &) const
	?NotifyUUSSettingChange@RMobilePhone@@QBEXAAVTRequestStatus@@AAW4TMobilePhoneUUSSetting@1@@Z @ 187 NONAME ; void RMobilePhone::NotifyUUSSettingChange(class TRequestStatus &, enum RMobilePhone::TMobilePhoneUUSSetting &) const
	?ProfileL@CSIPProfileRegistryBase@@QAEPAVCSIPProfile@@K@Z @ 188 NONAME ; class CSIPProfile * CSIPProfileRegistryBase::ProfileL(unsigned long)
	?ProfilesL@CSIPProfileRegistryBase@@QAEXAAV?$RPointerArray@VCSIPProfile@@@@@Z @ 189 NONAME ; void CSIPProfileRegistryBase::ProfilesL(class RPointerArray<class CSIPProfile> &)
	?ProfilesL@CSIPProfileRegistryBase@@QAEXABVTDesC8@@AAV?$RPointerArray@VCSIPProfile@@@@@Z @ 190 NONAME ; void CSIPProfileRegistryBase::ProfilesL(class TDesC8 const &, class RPointerArray<class CSIPProfile> &)
	?ProfilesL@CSIPProfileRegistryBase@@QAEXABVTSIPProfileTypeInfo@@AAV?$RPointerArray@VCSIPProfile@@@@@Z @ 191 NONAME ; void CSIPProfileRegistryBase::ProfilesL(class TSIPProfileTypeInfo const &, class RPointerArray<class CSIPProfile> &)
	?ProgramFeatureCode@RMobilePhone@@QBEXAAVTRequestStatus@@ABVTDesC16@@W4TMobilePhoneNetworkService@1@W4TMobilePhoneServiceAction@1@@Z @ 192 NONAME ; void RMobilePhone::ProgramFeatureCode(class TRequestStatus &, class TDesC16 const &, enum RMobilePhone::TMobilePhoneNetworkService, enum RMobilePhone::TMobilePhoneServiceAction) const
	?ReasonPhrase@CSIPResponseElements@@QBE?AVRStringF@@XZ @ 193 NONAME ; class RStringF CSIPResponseElements::ReasonPhrase(void) const
	?RegistrationStatus@CConnMonNetworkRegistrationChange@@QBEHXZ @ 194 NONAME ; int CConnMonNetworkRegistrationChange::RegistrationStatus(void) const
	?RemoteUri@CSIPRequestElements@@QBEABVCUri8@@XZ @ 195 NONAME ; class CUri8 const & CSIPRequestElements::RemoteUri(void) const
	?RequestElements@CSIPServerTransaction@@QBEPBVCSIPRequestElements@@XZ @ 196 NONAME ; class CSIPRequestElements const * CSIPServerTransaction::RequestElements(void) const
	?ResponseAllowed@CSIPServerTransaction@@QBEHXZ @ 197 NONAME ; int CSIPServerTransaction::ResponseAllowed(void) const
	?ResponseElements@CSIPClientTransaction@@QBEPBVCSIPResponseElements@@XZ @ 198 NONAME ; class CSIPResponseElements const * CSIPClientTransaction::ResponseElements(void) const
	?SIP@CSIPConnection@@QAEPAVCSIP@@XZ @ 199 NONAME ; class CSIP * CSIPConnection::SIP(void)
	?SIP@CSIPConnection@@QBEPBVCSIP@@XZ @ 200 NONAME ; class CSIP const * CSIPConnection::SIP(void) const
	?SIP@CSIPProfileRegistry@@QBEAAVCSIP@@XZ @ 201 NONAME ; class CSIP & CSIPProfileRegistry::SIP(void) const
	?SaveL@CSIPManagedProfileRegistry@@QAEXAAVCSIPProfile@@@Z @ 202 NONAME ; void CSIPManagedProfileRegistry::SaveL(class CSIPProfile &)
	?SelectNetwork@RMobilePhone@@QBEXAAVTRequestStatus@@HABUTMobilePhoneNetworkManualSelection@1@@Z @ 203 NONAME ; void RMobilePhone::SelectNetwork(class TRequestStatus &, int, struct RMobilePhone::TMobilePhoneNetworkManualSelection const &) const
	?SendDTMFTones@RMobilePhone@@QBEXAAVTRequestStatus@@ABVTDesC16@@@Z @ 204 NONAME ; void RMobilePhone::SendDTMFTones(class TRequestStatus &, class TDesC16 const &) const
	?SendNetworkServiceRequest@RMobilePhone@@QBEXAAVTRequestStatus@@ABVTDesC16@@@Z @ 205 NONAME ; void RMobilePhone::SendNetworkServiceRequest(class TRequestStatus &, class TDesC16 const &) const
	?SendResponseL@CSIPServerTransaction@@QAEXPAVCSIPResponseElements@@@Z @ 206 NONAME ; void CSIPServerTransaction::SendResponseL(class CSIPResponseElements *)
	?SetALSLine@RMobilePhone@@QBEXAAVTRequestStatus@@W4TMobilePhoneALSLine@1@@Z @ 207 NONAME ; void RMobilePhone::SetALSLine(class TRequestStatus &, enum RMobilePhone::TMobilePhoneALSLine) const
	?SetAlternatingCallMode@RMobilePhone@@QBEXAAVTRequestStatus@@W4TMobilePhoneAlternatingCallMode@1@W4TMobileService@1@@Z @ 208 NONAME ; void RMobilePhone::SetAlternatingCallMode(class TRequestStatus &, enum RMobilePhone::TMobilePhoneAlternatingCallMode, enum RMobilePhone::TMobileService) const
	?SetBoolAttribute@RConnectionMonitor@@QBEHIIIH@Z @ 209 NONAME ; int RConnectionMonitor::SetBoolAttribute(unsigned int, unsigned int, unsigned int, int) const
	?SetCallBarringPassword@RMobilePhone@@QBEXAAVTRequestStatus@@ABVTMobilePhonePasswordChangeV1@1@@Z @ 210 NONAME ; void RMobilePhone::SetCallBarringPassword(class TRequestStatus &, class RMobilePhone::TMobilePhonePasswordChangeV1 const &) const
	?SetCallBarringStatus@RMobilePhone@@QBEXAAVTRequestStatus@@W4TMobilePhoneCBCondition@1@ABVTMobilePhoneCBChangeV1@1@@Z @ 211 NONAME ; void RMobilePhone::SetCallBarringStatus(class TRequestStatus &, enum RMobilePhone::TMobilePhoneCBCondition, class RMobilePhone::TMobilePhoneCBChangeV1 const &) const
	?SetCallForwardingStatus@RMobilePhone@@QBEXAAVTRequestStatus@@W4TMobilePhoneCFCondition@1@ABVTMobilePhoneCFChangeV1@1@@Z @ 212 NONAME ; void RMobilePhone::SetCallForwardingStatus(class TRequestStatus &, enum RMobilePhone::TMobilePhoneCFCondition, class RMobilePhone::TMobilePhoneCFChangeV1 const &) const
	?SetCallWaitingStatus@RMobilePhone@@QBEXAAVTRequestStatus@@W4TMobileService@1@W4TMobilePhoneServiceAction@1@@Z @ 213 NONAME ; void RMobilePhone::SetCallWaitingStatus(class TRequestStatus &, enum RMobilePhone::TMobileService, enum RMobilePhone::TMobilePhoneServiceAction) const
	?SetContentL@CSIPMessageElements@@QAEXPAVHBufC8@@PAVCSIPContentTypeHeader@@@Z @ 214 NONAME ; void CSIPMessageElements::SetContentL(class HBufC8 *, class CSIPContentTypeHeader *)
	?SetDefaultPrivacy@RMobilePhone@@QBEXAAVTRequestStatus@@W4TMobilePhonePrivacy@1@@Z @ 215 NONAME ; void RMobilePhone::SetDefaultPrivacy(class TRequestStatus &, enum RMobilePhone::TMobilePhonePrivacy) const
	?SetFdnSetting@RMobilePhone@@QBEXAAVTRequestStatus@@W4TMobilePhoneFdnSetting@1@@Z @ 216 NONAME ; void RMobilePhone::SetFdnSetting(class TRequestStatus &, enum RMobilePhone::TMobilePhoneFdnSetting) const
	?SetFromHeaderL@CSIPRequestElements@@QAEXPAVCSIPFromHeader@@@Z @ 217 NONAME ; void CSIPRequestElements::SetFromHeaderL(class CSIPFromHeader *)
	?SetIccMessageWaitingIndicators@RMobilePhone@@QBEXAAVTRequestStatus@@ABVTDesC8@@@Z @ 218 NONAME ; void RMobilePhone::SetIccMessageWaitingIndicators(class TRequestStatus &, class TDesC8 const &) const
	?SetIncomingCallType@RMobilePhone@@QBEXAAVTRequestStatus@@W4TMobilePhoneIncomingCallType@1@AAVTDes8@@@Z @ 219 NONAME ; void RMobilePhone::SetIncomingCallType(class TRequestStatus &, enum RMobilePhone::TMobilePhoneIncomingCallType, class TDes8 &) const
	?SetIntAttribute@RConnectionMonitor@@QBEHIIIH@Z @ 220 NONAME ; int RConnectionMonitor::SetIntAttribute(unsigned int, unsigned int, unsigned int, int) const
	?SetLockSetting@RMobilePhone@@QBEXAAVTRequestStatus@@W4TMobilePhoneLock@1@W4TMobilePhoneLockSetting@1@@Z @ 221 NONAME ; void RMobilePhone::SetLockSetting(class TRequestStatus &, enum RMobilePhone::TMobilePhoneLock, enum RMobilePhone::TMobilePhoneLockSetting) const
	?SetMaxCostMeter@RMobilePhone@@QBEXAAVTRequestStatus@@I@Z @ 222 NONAME ; void RMobilePhone::SetMaxCostMeter(class TRequestStatus &, unsigned int) const
	?SetMethodL@CSIPRequestElements@@QAEXVRStringF@@@Z @ 223 NONAME ; void CSIPRequestElements::SetMethodL(class RStringF)
	?SetMulticallParams@RMobilePhone@@QBEXAAVTRequestStatus@@H@Z @ 224 NONAME ; void RMobilePhone::SetMulticallParams(class TRequestStatus &, int) const
	?SetNetworkSelectionSetting@RMobilePhone@@QBEXAAVTRequestStatus@@ABVTDes8@@@Z @ 225 NONAME ; void RMobilePhone::SetNetworkSelectionSetting(class TRequestStatus &, class TDes8 const &) const
	?SetParameter@CSIPManagedProfile@@QAEHKABVMDesC8Array@@@Z @ 226 NONAME ; int CSIPManagedProfile::SetParameter(unsigned long, class MDesC8Array const &)
	?SetPckgAttribute@RConnectionMonitor@@QBEHIIIABVTDes8@@@Z @ 227 NONAME ; int RConnectionMonitor::SetPckgAttribute(unsigned int, unsigned int, unsigned int, class TDes8 const &) const
	?SetPuct@RMobilePhone@@QBEXAAVTRequestStatus@@ABVTDesC8@@@Z @ 228 NONAME ; void RMobilePhone::SetPuct(class TRequestStatus &, class TDesC8 const &) const
	?SetReasonPhraseL@CSIPResponseElements@@QAEXVRStringF@@@Z @ 229 NONAME ; void CSIPResponseElements::SetReasonPhraseL(class RStringF)
	?SetRemoteUriL@CSIPRequestElements@@QAEXPAVCUri8@@@Z @ 230 NONAME ; void CSIPRequestElements::SetRemoteUriL(class CUri8 *)
	?SetRequestElements@CSIPServerTransaction@@QAEXPAVCSIPRequestElements@@@Z @ 231 NONAME ; void CSIPServerTransaction::SetRequestElements(class CSIPRequestElements *)
	?SetResponseElements@CSIPClientTransaction@@QAEXPAVCSIPResponseElements@@@Z @ 232 NONAME ; void CSIPClientTransaction::SetResponseElements(class CSIPResponseElements *)
	?SetState@CSIPConnection@@QAEXW4TState@1@@Z @ 233 NONAME ; void CSIPConnection::SetState(enum CSIPConnection::TState)
	?SetStatusCodeL@CSIPResponseElements@@QAEXI@Z @ 234 NONAME ; void CSIPResponseElements::SetStatusCodeL(unsigned int)
	?SetStringAttribute@RConnectionMonitor@@QBEHIIIABVTDes16@@@Z @ 235 NONAME ; int RConnectionMonitor::SetStringAttribute(unsigned int, unsigned int, unsigned int, class TDes16 const &) const
	?SetToHeaderL@CSIPRequestElements@@QAEXPAVCSIPToHeader@@@Z @ 236 NONAME ; void CSIPRequestElements::SetToHeaderL(class CSIPToHeader *)
	?SetUUSSetting@RMobilePhone@@QBEXAAVTRequestStatus@@W4TMobilePhoneUUSSetting@1@@Z @ 237 NONAME ; void RMobilePhone::SetUUSSetting(class TRequestStatus &, enum RMobilePhone::TMobilePhoneUUSSetting) const
	?SetUintAttribute@RConnectionMonitor@@QBEHIIII@Z @ 238 NONAME ; int RConnectionMonitor::SetUintAttribute(unsigned int, unsigned int, unsigned int, unsigned int) const
	?SetUserHeadersL@CSIPMessageElements@@QAEXAAV?$RPointerArray@VCSIPHeaderBase@@@@@Z @ 239 NONAME ; void CSIPMessageElements::SetUserHeadersL(class RPointerArray<class CSIPHeaderBase> &)
	?SignalStrength@CConnMonSignalStrengthChange@@QBEHXZ @ 240 NONAME ; int CConnMonSignalStrengthChange::SignalStrength(void) const
	?StartDTMFTone@RMobilePhone@@QBEHVTChar@@@Z @ 241 NONAME ; int RMobilePhone::StartDTMFTone(class TChar) const
	?State@CSIPConnection@@QBE?AW4TState@1@XZ @ 242 NONAME ; enum CSIPConnection::TState CSIPConnection::State(void) const
	?StateL@CSIPTransactionBase@@QAE?AW4TState@1@XZ @ 243 NONAME ; enum CSIPTransactionBase::TState CSIPTransactionBase::StateL(void)
	?StatusCode@CSIPResponseElements@@QBEIXZ @ 244 NONAME ; unsigned int CSIPResponseElements::StatusCode(void) const
	?StopDTMFTone@RMobilePhone@@QBEHXZ @ 245 NONAME ; int RMobilePhone::StopDTMFTone(void) const
	?SubConnectionId@CConnMonConnectionActivityChange@@QBEIXZ @ 246 NONAME ; unsigned int CConnMonConnectionActivityChange::SubConnectionId(void) const
	?SubConnectionId@CConnMonConnectionStatusChange@@QBEIXZ @ 247 NONAME ; unsigned int CConnMonConnectionStatusChange::SubConnectionId(void) const
	?SubConnectionId@CConnMonCreateSubConnection@@QBEIXZ @ 248 NONAME ; unsigned int CConnMonCreateSubConnection::SubConnectionId(void) const
	?SubConnectionId@CConnMonDeleteSubConnection@@QBEIXZ @ 249 NONAME ; unsigned int CConnMonDeleteSubConnection::SubConnectionId(void) const
	?SubConnectionId@CConnMonDownlinkDataThreshold@@QBEIXZ @ 250 NONAME ; unsigned int CConnMonDownlinkDataThreshold::SubConnectionId(void) const
	?SubConnectionId@CConnMonUplinkDataThreshold@@QBEIXZ @ 251 NONAME ; unsigned int CConnMonUplinkDataThreshold::SubConnectionId(void) const
	?SupportedProfileTypesL@CSIPProfileRegistryBase@@QAEXAAV?$RArray@VTSIPProfileTypeInfo@@@@@Z @ 252 NONAME ; void CSIPProfileRegistryBase::SupportedProfileTypesL(class RArray<class TSIPProfileTypeInfo> &)
	?SupportedSecurityMechanismsL@CSIP@@QBEPAVCDesC8Array@@XZ @ 253 NONAME ; class CDesC8Array * CSIP::SupportedSecurityMechanismsL(void) const
	?ToHeader@CSIPRequestElements@@QBEPBVCSIPToHeader@@XZ @ 254 NONAME ; class CSIPToHeader const * CSIPRequestElements::ToHeader(void) const
	?ToHeader@CSIPResponseElements@@QBEPBVCSIPToHeader@@XZ @ 255 NONAME ; class CSIPToHeader const * CSIPResponseElements::ToHeader(void) const
	?TransmitPower@CConnMonTransmitPowerChange@@QBEIXZ @ 256 NONAME ; unsigned int CConnMonTransmitPowerChange::TransmitPower(void) const
	?Type@CSIPProfile@@QBEABVTSIPProfileTypeInfo@@XZ @ 257 NONAME ; class TSIPProfileTypeInfo const & CSIPProfile::Type(void) const
	?Type@CSIPTransactionBase@@QBE?AVRStringF@@XZ @ 258 NONAME ; class RStringF CSIPTransactionBase::Type(void) const
	?UplinkData@CConnMonDeleteConnection@@QBEIXZ @ 259 NONAME ; unsigned int CConnMonDeleteConnection::UplinkData(void) const
	?UplinkData@CConnMonDeleteSubConnection@@QBEIXZ @ 260 NONAME ; unsigned int CConnMonDeleteSubConnection::UplinkData(void) const
	?UplinkData@CConnMonUplinkDataThreshold@@QBEIXZ @ 261 NONAME ; unsigned int CConnMonUplinkDataThreshold::UplinkData(void) const
	?UserHeaders@CSIPMessageElements@@QBEABV?$RPointerArray@VCSIPHeaderBase@@@@XZ @ 262 NONAME ; class RPointerArray<class CSIPHeaderBase> const & CSIPMessageElements::UserHeaders(void) const
	?VerifySecurityCode@RMobilePhone@@QBEXAAVTRequestStatus@@W4TMobilePhoneSecurityCode@1@ABV?$TBuf@$09@@2@Z @ 263 NONAME ; void RMobilePhone::VerifySecurityCode(class TRequestStatus &, enum RMobilePhone::TMobilePhoneSecurityCode, class TBuf<10> const &, class TBuf<10> const &) const
	??1CSIPManagedProfile@@UAE@XZ @ 264 NONAME ; CSIPManagedProfile::~CSIPManagedProfile(void)
	?GetLocalAddrL@CSIPConnection@@QBEXAAVTInetAddr@@@Z @ 265 NONAME ; void CSIPConnection::GetLocalAddrL(class TInetAddr &) const
	?SendRequestL@CSIPConnection@@QAEPAVCSIPClientTransaction@@PAVCSIPRequestElements@@ABVMSIPRegistrationContext@@@Z @ 266 NONAME ; class CSIPClientTransaction * CSIPConnection::SendRequestL(class CSIPRequestElements *, class MSIPRegistrationContext const &)
	??1CRepository@@UAE@XZ @ 267 NONAME ; CRepository::~CRepository(void)
	?CommitTransaction@CRepository@@QAEHAAK@Z @ 268 NONAME ; int CRepository::CommitTransaction(unsigned long &)
	?Get@CRepository@@QAEHKAAH@Z @ 269 NONAME ; int CRepository::Get(unsigned long, int &)
	?NewL@CRepository@@SAPAV1@VTUid@@@Z @ 270 NONAME ; class CRepository * CRepository::NewL(class TUid)
	?Set@CRepository@@QAEHKH@Z @ 271 NONAME ; int CRepository::Set(unsigned long, int)
	?Set@CRepository@@QAEHKABVTDesC16@@@Z @ 272 NONAME ; int CRepository::Set(unsigned long, class TDesC16 const &)
	?Create@CRepository@@QAEHKABVTDesC8@@@Z @ 273 NONAME ; int CRepository::Create(unsigned long, class TDesC8 const &)
	?StartTransaction@CRepository@@QAEHW4TTransactionMode@1@@Z @ 274 NONAME ; int CRepository::StartTransaction(enum CRepository::TTransactionMode)
	?NewLC@CRepository@@SAPAV1@VTUid@@@Z @ 275 NONAME ; class CRepository * CRepository::NewLC(class TUid)
	?Create@CRepository@@QAEHKH@Z @ 276 NONAME ; int CRepository::Create(unsigned long, int)
	?Get@CRepository@@QAEHKAAVTDes16@@@Z @ 277 NONAME ; int CRepository::Get(unsigned long, class TDes16 &)
	?Delete@CRepository@@QAEHKKAAK@Z @ 278 NONAME ; int CRepository::Delete(unsigned long, unsigned long, unsigned long &)
	?FindL@CRepository@@QAEHKKAAV?$RArray@K@@@Z @ 279 NONAME ; int CRepository::FindL(unsigned long, unsigned long, class RArray<unsigned long> &)
	?FindEqL@CRepository@@QAEHKKABVTDesC8@@AAV?$RArray@K@@@Z @ 280 NONAME ; int CRepository::FindEqL(unsigned long, unsigned long, class TDesC8 const &, class RArray<unsigned long> &)

