EXPORTS
	_Z16CreateTestSuiteLv @ 1 NONAME
	_ZN11CRepository16StartTransactionENS_16TTransactionModeE @ 2 NONAME
	_ZN11CRepository17CommitTransactionERm @ 3 NONAME
	_ZN11CRepository3GetEmR5TDes8 @ 4 NONAME
	_ZN11CRepository3GetEmR6TDes16 @ 5 NONAME
	_ZN11CRepository3GetEmRi @ 6 NONAME
	_ZN11CRepository3SetEmRK6TDesC8 @ 7 NONAME
	_ZN11CRepository3SetEmRK7TDesC16 @ 8 NONAME
	_ZN11CRepository3SetEmi @ 9 NONAME
	_ZN11CRepository4NewLE4TUid @ 10 NONAME
	_ZN11CRepository5FindLEmmR6RArrayImE @ 11 NONAME
	_ZN11CRepository5NewLCE4TUid @ 12 NONAME
	_ZN11CRepository6CreateEmRK6TDesC8 @ 13 NONAME
	_ZN11CRepository6CreateEmi @ 14 NONAME
	_ZN11CRepository6DeleteEmmRm @ 15 NONAME
	_ZN11CRepository7FindEqLEmmRK6TDesC8R6RArrayImE @ 16 NONAME
	_ZN11CRepositoryD0Ev @ 17 NONAME
	_ZN11CRepositoryD1Ev @ 18 NONAME
	_ZN11CRepositoryD2Ev @ 19 NONAME
	_ZN11CSIPProfileD0Ev @ 20 NONAME
	_ZN11CSIPProfileD1Ev @ 21 NONAME
	_ZN11CSIPProfileD2Ev @ 22 NONAME
	_ZN14CMusEngSession10SetVolumeLEi @ 23 NONAME
	_ZN14CMusEngSession11IsMicMutedLEv @ 24 NONAME
	_ZN14CMusEngSession11VolumeDownLEv @ 25 NONAME
	_ZN14CMusEngSession18EnableLoudspeakerLEii @ 26 NONAME
	_ZN14CMusEngSession23SetAudioRoutingObserverEP27MMusEngAudioRoutingObserver @ 27 NONAME
	_ZN14CMusEngSession24AudioRoutingCanBeChangedEv @ 28 NONAME
	_ZN14CMusEngSession8MuteMicLEi @ 29 NONAME
	_ZN14CMusEngSession8SetRectLERK5TRect @ 30 NONAME
	_ZN14CMusEngSession9VolumeUpLEv @ 31 NONAME
	_ZN15CMceMediaSourceD0Ev @ 32 NONAME
	_ZN15CMceMediaSourceD1Ev @ 33 NONAME
	_ZN15CMceMediaSourceD2Ev @ 34 NONAME
	_ZN16CMceCameraSource11BrightnessLEv @ 35 NONAME
	_ZN16CMceCameraSource11ZoomFactorLEv @ 36 NONAME
	_ZN16CMceCameraSource12SetContrastLEi @ 37 NONAME
	_ZN16CMceCameraSource12SetExposureLEN7CCamera9TExposureE @ 38 NONAME
	_ZN16CMceCameraSource13WhiteBalanceLEv @ 39 NONAME
	_ZN16CMceCameraSource14SetBrightnessLEi @ 40 NONAME
	_ZN16CMceCameraSource14SetZoomFactorLEi @ 41 NONAME
	_ZN16CMceCameraSource15SetCameraIndexLEi @ 42 NONAME
	_ZN16CMceCameraSource16SetWhiteBalanceLEN7CCamera13TWhiteBalanceE @ 43 NONAME
	_ZN16CMceCameraSource18DigitalZoomFactorLEv @ 44 NONAME
	_ZN16CMceCameraSource21SetDigitalZoomFactorLEi @ 45 NONAME
	_ZN16CMceCameraSource4NewLER11CMceManager @ 46 NONAME
	_ZN16CMceCameraSource5NewLCER11CMceManager @ 47 NONAME
	_ZN16CMceCameraSource7EnableLEv @ 48 NONAME
	_ZN16CMceCameraSource8DisableLEv @ 49 NONAME
	_ZN16CMceCameraSource9ContrastLEv @ 50 NONAME
	_ZN16CMceCameraSource9ExposureLEv @ 51 NONAME
	_ZN16CMceCameraSourceD0Ev @ 52 NONAME
	_ZN16CMceCameraSourceD1Ev @ 53 NONAME
	_ZN16CMceCameraSourceD2Ev @ 54 NONAME
	_ZN16TMusEngUriParser7UriTypeEv @ 55 NONAME
	_ZN16TMusEngUriParser8GetUri8LEv @ 56 NONAME
	_ZN16TMusEngUriParser9GetUri16LEi @ 57 NONAME
	_ZN16TMusEngUriParser9ParseUriLEv @ 58 NONAME
	_ZN16TMusEngUriParserC1ERK7TDesC16 @ 59 NONAME
	_ZN16TMusEngUriParserC2ERK7TDesC16 @ 60 NONAME
	_ZN17CMusEngMceSession10SetVolumeLEi @ 61 NONAME
	_ZN17CMusEngMceSession10TerminateLEv @ 62 NONAME
	_ZN17CMusEngMceSession11VolumeDownLEv @ 63 NONAME
	_ZN17CMusEngMceSession12OrientationLEv @ 64 NONAME
	_ZN17CMusEngMceSession14ContainsAudioLEv @ 65 NONAME
	_ZN17CMusEngMceSession14EnableDisplayLEi @ 66 NONAME
	_ZN17CMusEngMceSession15SetOrientationLENS_19TDisplayOrientationE @ 67 NONAME
	_ZN17CMusEngMceSession5MuteLEv @ 68 NONAME
	_ZN17CMusEngMceSession7UnmuteLEv @ 69 NONAME
	_ZN17CMusEngMceSession8IsMutedLEv @ 70 NONAME
	_ZN17CMusEngMceSession9VolumeUpLEv @ 71 NONAME
	_ZN18CMusEngClipSession10IsPlayingLEv @ 72 NONAME
	_ZN18CMusEngClipSession10TranscodeLERK4TBufILi256EE @ 73 NONAME
	_ZN18CMusEngClipSession11FastRewindLEi @ 74 NONAME
	_ZN18CMusEngClipSession12FastForwardLEi @ 75 NONAME
	_ZN18CMusEngClipSession12SetPositionLERK20TTimeIntervalSeconds @ 76 NONAME
	_ZN18CMusEngClipSession16CancelTranscodeLEv @ 77 NONAME
	_ZN18CMusEngClipSession4NewLERK5TRectR22MMusEngSessionObserverR25MMusEngOutSessionObserverR26MMusEngClipSessionObserverj @ 78 NONAME
	_ZN18CMusEngClipSession5PlayLEv @ 79 NONAME
	_ZN18CMusEngClipSession6PauseLEv @ 80 NONAME
	_ZN18CMusEngClipSession8SetClipLERK7TDesC16 @ 81 NONAME
	_ZN18CMusEngClipSession9DurationLEv @ 82 NONAME
	_ZN18CMusEngClipSession9PositionLEv @ 83 NONAME
	_ZN18CMusEngLiveSession10IsPlayingLEv @ 84 NONAME
	_ZN18CMusEngLiveSession11IsRecordingEv @ 85 NONAME
	_ZN18CMusEngLiveSession12ZoomDefaultLEv @ 86 NONAME
	_ZN18CMusEngLiveSession15BrightnessAutoLEv @ 87 NONAME
	_ZN18CMusEngLiveSession18BrightnessDefaultLEv @ 88 NONAME
	_ZN18CMusEngLiveSession19DecreaseBrightnessLEv @ 89 NONAME
	_ZN18CMusEngLiveSession19IncreaseBrightnessLEv @ 90 NONAME
	_ZN18CMusEngLiveSession4NewLERK5TRectR22MMusEngSessionObserverR25MMusEngOutSessionObserverR26MMusEngLiveSessionObserverj @ 91 NONAME
	_ZN18CMusEngLiveSession4NewLERK7TDesC16RK5TRectR22MMusEngSessionObserverR25MMusEngOutSessionObserverR26MMusEngLiveSessionObserverj @ 92 NONAME
	_ZN18CMusEngLiveSession5PlayLEv @ 93 NONAME
	_ZN18CMusEngLiveSession6PauseLEv @ 94 NONAME
	_ZN18CMusEngLiveSession7RecordLEi @ 95 NONAME
	_ZN18CMusEngLiveSession7ZoomInLEv @ 96 NONAME
	_ZN18CMusEngLiveSession8SetZoomLEi @ 97 NONAME
	_ZN18CMusEngLiveSession8ZoomOutLEv @ 98 NONAME
	_ZN19CSIPProfileRegistry4NewLER4CSIPR27MSIPProfileRegistryObserver @ 99 NONAME
	_ZN19CSIPProfileRegistry5NewLCER4CSIPR27MSIPProfileRegistryObserver @ 100 NONAME
	_ZN19CSIPProfileRegistry7DisableER11CSIPProfile @ 101 NONAME
	_ZN19CSIPProfileRegistry7EnableLER11CSIPProfileR22MSIPConnectionObserver @ 102 NONAME
	_ZN19CSIPProfileRegistryD0Ev @ 103 NONAME
	_ZN19CSIPProfileRegistryD1Ev @ 104 NONAME
	_ZN19CSIPProfileRegistryD2Ev @ 105 NONAME
	_ZN20CMusEngMceOutSession13CancelInviteLEv @ 106 NONAME
	_ZN20CMusEngMceOutSession27SetSupportedVideoCodecListLERK7TDesC16 @ 107 NONAME
	_ZN20CMusEngMceOutSession7InviteLERK7TDesC16 @ 108 NONAME
	_ZN21CMusEngReceiveSession17AcceptInvitationLERKi @ 109 NONAME
	_ZN21CMusEngReceiveSession4NewLERK5TRectR22MMusEngSessionObserverR29MMusEngReceiveSessionObserver @ 110 NONAME
	_ZN23CSIPProfileRegistryBase15DefaultProfileLEv @ 111 NONAME
	_ZN23CSIPProfileRegistryBase22SupportedProfileTypesLER6RArrayI19TSIPProfileTypeInfoE @ 112 NONAME
	_ZN23CSIPProfileRegistryBase8ProfileLEm @ 113 NONAME
	_ZN23CSIPProfileRegistryBase9ProfilesLER13RPointerArrayI11CSIPProfileE @ 114 NONAME
	_ZN23CSIPProfileRegistryBase9ProfilesLERK19TSIPProfileTypeInfoR13RPointerArrayI11CSIPProfileE @ 115 NONAME
	_ZN23CSIPProfileRegistryBase9ProfilesLERK6TDesC8R13RPointerArrayI11CSIPProfileE @ 116 NONAME
	_ZN23CSIPProfileRegistryBaseD0Ev @ 117 NONAME
	_ZN23CSIPProfileRegistryBaseD1Ev @ 118 NONAME
	_ZN23CSIPProfileRegistryBaseD2Ev @ 119 NONAME
	_ZN4CSIP28NegotiatedSecurityMechanismLERK6TDesC8 @ 120 NONAME
	_ZN4CSIP4NewLERK4TUidR12MSIPObserver @ 121 NONAME
	_ZN4CSIP5NewLCERK4TUidR12MSIPObserver @ 122 NONAME
	_ZN4CSIPD0Ev @ 123 NONAME
	_ZN4CSIPD1Ev @ 124 NONAME
	_ZN4CSIPD2Ev @ 125 NONAME
	_ZN9DRMCommon10ConstructLEv @ 126 NONAME
	_ZN9DRMCommon10DisconnectEv @ 127 NONAME
	_ZN9DRMCommon15IsProtectedFileERK7TDesC16Ri @ 128 NONAME
	_ZN9DRMCommon4NewLEv @ 129 NONAME
	_ZN9DRMCommon7ConnectEv @ 130 NONAME
	_ZN9DRMCommonC1Ev @ 131 NONAME
	_ZN9DRMCommonC2Ev @ 132 NONAME
	_ZN9DRMCommonD0Ev @ 133 NONAME
	_ZN9DRMCommonD1Ev @ 134 NONAME
	_ZN9DRMCommonD2Ev @ 135 NONAME
	_ZNK11CSIPProfile12GetParameterEmRPK11MDesC8Array @ 136 NONAME
	_ZNK11CSIPProfile12GetParameterEmRPK6TDesC8 @ 137 NONAME
	_ZNK11CSIPProfile12GetParameterEmRi @ 138 NONAME
	_ZNK11CSIPProfile12GetParameterEmRm @ 139 NONAME
	_ZNK11CSIPProfile4TypeEv @ 140 NONAME
	_ZNK14CMusEngSession20IsLoudSpeakerEnabledEv @ 141 NONAME
	_ZNK14CMusEngSession4RectEv @ 142 NONAME
	_ZNK14CMusEngSession7VolumeLEv @ 143 NONAME
	_ZNK15CMceMediaSource4TypeEv @ 144 NONAME
	_ZNK15CMceMediaSource9IsEnabledEv @ 145 NONAME
	_ZNK16CMceCameraSource13GetCameraInfoER11TCameraInfo @ 146 NONAME
	_ZNK16CMceCameraSource16CamerasAvailableEv @ 147 NONAME
	_ZNK17CMusEngMceSession14GetSessionTimeEv @ 148 NONAME
	_ZNK17CMusEngMceSession16ConnectionActiveEv @ 149 NONAME
	_ZNK18CMusEngLiveSession12CurrentZoomLEv @ 150 NONAME
	_ZNK18CMusEngLiveSession14MaxBrightnessLEv @ 151 NONAME
	_ZNK18CMusEngLiveSession14MinBrightnessLEv @ 152 NONAME
	_ZNK18CMusEngLiveSession14SetBrightnessLEi @ 153 NONAME
	_ZNK18CMusEngLiveSession18CurrentBrightnessLEv @ 154 NONAME
	_ZNK18CMusEngLiveSession8MaxZoomLEv @ 155 NONAME
	_ZNK18CMusEngLiveSession8MinZoomLEv @ 156 NONAME
	_ZNK19CSIPProfileRegistry3SIPEv @ 157 NONAME
	_ZNK19CSIPProfileRegistry9IsEnabledERK11CSIPProfile @ 158 NONAME
	_ZNK23CSIPProfileRegistryBase21LastRegistrationErrorERK11CSIPProfile @ 159 NONAME
	_ZNK4CSIP10ConnectionEm @ 160 NONAME
	_ZNK4CSIP19IsSigCompSupportedLEv @ 161 NONAME
	_ZNK4CSIP28SupportedSecurityMechanismsLEv @ 162 NONAME
	_ZTI11CRepository @ 163 NONAME ; #<TI>#
	_ZTI11CSIPProfile @ 164 NONAME ; #<TI>#
	_ZTI14CMusEngSession @ 165 NONAME ; #<TI>#
	_ZTI15CMceMediaSource @ 166 NONAME ; #<TI>#
	_ZTI16CMceCameraSource @ 167 NONAME ; #<TI>#
	_ZTI17CMusEngMceSession @ 168 NONAME ; #<TI>#
	_ZTI18CMusEngClipSession @ 169 NONAME ; #<TI>#
	_ZTI18CMusEngLiveSession @ 170 NONAME ; #<TI>#
	_ZTI19CMusEngObserverStub @ 171 NONAME ; #<TI>#
	_ZTI19CSIPProfileRegistry @ 172 NONAME ; #<TI>#
	_ZTI20CMusEngMceOutSession @ 173 NONAME ; #<TI>#
	_ZTI21CMusEngReceiveSession @ 174 NONAME ; #<TI>#
	_ZTI21CMusEngTelephoneUtils @ 175 NONAME ; #<TI>#
	_ZTI21CMusSipProfileHandler @ 176 NONAME ; #<TI>#
	_ZTI22CSIPProfileBehaviorTls @ 177 NONAME ; #<TI>#
	_ZTI23CSIPProfileRegistryBase @ 178 NONAME ; #<TI>#
	_ZTI27CMusEngSessionDurationTimer @ 179 NONAME ; #<TI>#
	_ZTI4CSIP @ 180 NONAME ; #<TI>#
	_ZTI9DRMCommon @ 181 NONAME ; #<TI>#
	_ZTV11CRepository @ 182 NONAME ; #<VT>#
	_ZTV11CSIPProfile @ 183 NONAME ; #<VT>#
	_ZTV14CMusEngSession @ 184 NONAME ; #<VT>#
	_ZTV15CMceMediaSource @ 185 NONAME ; #<VT>#
	_ZTV16CMceCameraSource @ 186 NONAME ; #<VT>#
	_ZTV17CMusEngMceSession @ 187 NONAME ; #<VT>#
	_ZTV18CMusEngClipSession @ 188 NONAME ; #<VT>#
	_ZTV18CMusEngLiveSession @ 189 NONAME ; #<VT>#
	_ZTV19CMusEngObserverStub @ 190 NONAME ; #<VT>#
	_ZTV19CSIPProfileRegistry @ 191 NONAME ; #<VT>#
	_ZTV20CMusEngMceOutSession @ 192 NONAME ; #<VT>#
	_ZTV21CMusEngReceiveSession @ 193 NONAME ; #<VT>#
	_ZTV21CMusEngTelephoneUtils @ 194 NONAME ; #<VT>#
	_ZTV21CMusSipProfileHandler @ 195 NONAME ; #<VT>#
	_ZTV22CSIPProfileBehaviorTls @ 196 NONAME ; #<VT>#
	_ZTV23CSIPProfileRegistryBase @ 197 NONAME ; #<VT>#
	_ZTV27CMusEngSessionDurationTimer @ 198 NONAME ; #<VT>#
	_ZTV4CSIP @ 199 NONAME ; #<VT>#
	_ZTV9DRMCommon @ 200 NONAME ; #<VT>#
	_ZThn4_N11CSIPProfileD0Ev @ 201 NONAME ; #<thunk>#
	_ZThn4_N11CSIPProfileD1Ev @ 202 NONAME ; #<thunk>#

