EXPORTS
	?CreateTestSuiteL@@YAPAVMEUnitTest@@XZ @ 1 NONAME ; class MEUnitTest * CreateTestSuiteL(void)
	??1CRepository@@UAE@XZ @ 2 NONAME ; CRepository::~CRepository(void)
	?StartTransaction@CRepository@@QAEHW4TTransactionMode@1@@Z @ 3 NONAME ; int CRepository::StartTransaction(enum CRepository::TTransactionMode)
	?SetAudioRoutingObserver@CMusEngSession@@QAEXPAVMMusEngAudioRoutingObserver@@@Z @ 4 NONAME ; void CMusEngSession::SetAudioRoutingObserver(class MMusEngAudioRoutingObserver *)
	?DigitalZoomFactorL@CMceCameraSource@@QAEHXZ @ 5 NONAME ; int CMceCameraSource::DigitalZoomFactorL(void)
	?NewL@CCenRepNotifyHandler@@SAPAV1@AAVMCenRepNotifyHandlerCallback@@AAVCRepository@@@Z @ 6 NONAME ; class CCenRepNotifyHandler * CCenRepNotifyHandler::NewL(class MCenRepNotifyHandlerCallback &, class CRepository &)
	?SetClipL@CMusEngClipSession@@QAEXABVTDesC16@@@Z @ 7 NONAME ; void CMusEngClipSession::SetClipL(class TDesC16 const &)
	?GetCameraInfo@CMceCameraSource@@QBEXAAVTCameraInfo@@@Z @ 8 NONAME ; void CMceCameraSource::GetCameraInfo(class TCameraInfo &) const
	?NewLC@CRepository@@SAPAV1@VTUid@@@Z @ 9 NONAME ; class CRepository * CRepository::NewLC(class TUid)
	?IsMicMutedL@CMusEngSession@@QAEHXZ @ 10 NONAME ; int CMusEngSession::IsMicMutedL(void)
	?FastRewindL@CMusEngClipSession@@QAEXH@Z @ 11 NONAME ; void CMusEngClipSession::FastRewindL(int)
	?Create@CRepository@@QAEHKH@Z @ 12 NONAME ; int CRepository::Create(unsigned long, int)
	?UriType@TMusEngUriParser@@QAE?AW4TMusEngUriType@1@XZ @ 13 NONAME ; enum TMusEngUriParser::TMusEngUriType TMusEngUriParser::UriType(void)
	?ProfilesL@CSIPProfileRegistryBase@@QAEXABVTSIPProfileTypeInfo@@AAV?$RPointerArray@VCSIPProfile@@@@@Z @ 14 NONAME ; void CSIPProfileRegistryBase::ProfilesL(class TSIPProfileTypeInfo const &, class RPointerArray<class CSIPProfile> &)
	?Type@CSIPProfile@@QBEABVTSIPProfileTypeInfo@@XZ @ 15 NONAME ; class TSIPProfileTypeInfo const & CSIPProfile::Type(void) const
	?DurationL@CMusEngClipSession@@QAE?AVTTimeIntervalSeconds@@XZ @ 16 NONAME ; class TTimeIntervalSeconds CMusEngClipSession::DurationL(void)
	?Type@CMceMediaSource@@QBEIXZ @ 17 NONAME ; unsigned int CMceMediaSource::Type(void) const
	??0TMusEngUriParser@@QAE@ABVTDesC16@@@Z @ 18 NONAME ; TMusEngUriParser::TMusEngUriParser(class TDesC16 const &)
	?BrightnessL@CMceCameraSource@@QAEHXZ @ 19 NONAME ; int CMceCameraSource::BrightnessL(void)
	?Get@CRepository@@QAEHKAAVTDes16@@@Z @ 20 NONAME ; int CRepository::Get(unsigned long, class TDes16 &)
	?GetUri8L@TMusEngUriParser@@QAEPAVHBufC8@@XZ @ 21 NONAME ; class HBufC8 * TMusEngUriParser::GetUri8L(void)
	?NewLC@CSIPProfileRegistry@@SAPAV1@AAVCSIP@@AAVMSIPProfileRegistryObserver@@@Z @ 22 NONAME ; class CSIPProfileRegistry * CSIPProfileRegistry::NewLC(class CSIP &, class MSIPProfileRegistryObserver &)
	?MaxBrightnessL@CMusEngLiveSession@@QBEHXZ @ 23 NONAME ; int CMusEngLiveSession::MaxBrightnessL(void) const
	?OrientationL@CMusEngMceSession@@QAE?AW4TDisplayOrientation@1@XZ @ 24 NONAME ; enum CMusEngMceSession::TDisplayOrientation CMusEngMceSession::OrientationL(void)
	?EnableL@CSIPProfileRegistry@@QAEXAAVCSIPProfile@@AAVMSIPConnectionObserver@@@Z @ 25 NONAME ; void CSIPProfileRegistry::EnableL(class CSIPProfile &, class MSIPConnectionObserver &)
	?SetSupportedVideoCodecListL@CMusEngMceOutSession@@QAEXABVTDesC16@@@Z @ 26 NONAME ; void CMusEngMceOutSession::SetSupportedVideoCodecListL(class TDesC16 const &)
	?CamerasAvailable@CMceCameraSource@@QBEHXZ @ 27 NONAME ; int CMceCameraSource::CamerasAvailable(void) const
	?IsRecording@CMusEngLiveSession@@QAEHXZ @ 28 NONAME ; int CMusEngLiveSession::IsRecording(void)
	?IsEnabled@CSIPProfileRegistry@@QBEHABVCSIPProfile@@@Z @ 29 NONAME ; int CSIPProfileRegistry::IsEnabled(class CSIPProfile const &) const
	?NewL@DRMCommon@@SAPAV1@XZ @ 30 NONAME ; class DRMCommon * DRMCommon::NewL(void)
	?DisableL@CMceCameraSource@@UAEXXZ @ 31 NONAME ; void CMceCameraSource::DisableL(void)
	?IsProtectedFile@DRMCommon@@QAEHABVTDesC16@@AAH@Z @ 32 NONAME ; int DRMCommon::IsProtectedFile(class TDesC16 const &, int &)
	?CancelTranscodeL@CMusEngClipSession@@QAEXXZ @ 33 NONAME ; void CMusEngClipSession::CancelTranscodeL(void)
	?IsAudioRoutingHeadset@CMusEngSession@@QBEHXZ @ 34 NONAME ; int CMusEngSession::IsAudioRoutingHeadset(void) const
	?Disable@CSIPProfileRegistry@@QAEHAAVCSIPProfile@@@Z @ 35 NONAME ; int CSIPProfileRegistry::Disable(class CSIPProfile &)
	?BrightnessDefaultL@CMusEngLiveSession@@QAEXXZ @ 36 NONAME ; void CMusEngLiveSession::BrightnessDefaultL(void)
	?Delete@CRepository@@QAEHKKAAK@Z @ 37 NONAME ; int CRepository::Delete(unsigned long, unsigned long, unsigned long &)
	?CommitTransaction@CRepository@@QAEHAAK@Z @ 38 NONAME ; int CRepository::CommitTransaction(unsigned long &)
	?SetExposureL@CMceCameraSource@@QAEXW4TExposure@CCamera@@@Z @ 39 NONAME ; void CMceCameraSource::SetExposureL(enum CCamera::TExposure)
	?FastForwardL@CMusEngClipSession@@QAEXH@Z @ 40 NONAME ; void CMusEngClipSession::FastForwardL(int)
	?SetZoomL@CMusEngLiveSession@@QAEXH@Z @ 41 NONAME ; void CMusEngLiveSession::SetZoomL(int)
	?Set@CRepository@@QAEHKABVTDesC8@@@Z @ 42 NONAME ; int CRepository::Set(unsigned long, class TDesC8 const &)
	?NewL@CMusEngClipSession@@SAPAV1@ABVTRect@@AAVMMusEngSessionObserver@@AAVMMusEngOutSessionObserver@@AAVMMusEngClipSessionObserver@@I@Z @ 43 NONAME ; class CMusEngClipSession * CMusEngClipSession::NewL(class TRect const &, class MMusEngSessionObserver &, class MMusEngOutSessionObserver &, class MMusEngClipSessionObserver &, unsigned int)
	?InviteL@CMusEngMceOutSession@@QAEXABVTDesC16@@@Z @ 44 NONAME ; void CMusEngMceOutSession::InviteL(class TDesC16 const &)
	?GetParameter@CSIPProfile@@QBEHKAAPBVTDesC8@@@Z @ 45 NONAME ; int CSIPProfile::GetParameter(unsigned long, class TDesC8 const * &) const
	?IsLoudSpeakerEnabled@CMusEngSession@@QBEHXZ @ 46 NONAME ; int CMusEngSession::IsLoudSpeakerEnabled(void) const
	?StartListeningL@CCenRepNotifyHandler@@QAEXXZ @ 47 NONAME ; void CCenRepNotifyHandler::StartListeningL(void)
	?NewL@CSIPProfileRegistry@@SAPAV1@AAVCSIP@@AAVMSIPProfileRegistryObserver@@@Z @ 48 NONAME ; class CSIPProfileRegistry * CSIPProfileRegistry::NewL(class CSIP &, class MSIPProfileRegistryObserver &)
	?NewL@CMusEngReceiveSession@@SAPAV1@ABVTRect@@AAVMMusEngSessionObserver@@AAVMMusEngReceiveSessionObserver@@@Z @ 49 NONAME ; class CMusEngReceiveSession * CMusEngReceiveSession::NewL(class TRect const &, class MMusEngSessionObserver &, class MMusEngReceiveSessionObserver &)
	?ContainsAudioL@CMusEngMceSession@@QAEHXZ @ 50 NONAME ; int CMusEngMceSession::ContainsAudioL(void)
	?VolumeUpL@CMusEngMceSession@@UAEXXZ @ 51 NONAME ; void CMusEngMceSession::VolumeUpL(void)
	?IsPlayingL@CMusEngClipSession@@UAEHXZ @ 52 NONAME ; int CMusEngClipSession::IsPlayingL(void)
	?Get@CRepository@@QAEHKAAH@Z @ 53 NONAME ; int CRepository::Get(unsigned long, int &)
	?SupportedSecurityMechanismsL@CSIP@@QBEPAVCDesC8Array@@XZ @ 54 NONAME ; class CDesC8Array * CSIP::SupportedSecurityMechanismsL(void) const
	?PlayL@CMusEngClipSession@@UAEXXZ @ 55 NONAME ; void CMusEngClipSession::PlayL(void)
	?PauseL@CMusEngLiveSession@@UAEXXZ @ 56 NONAME ; void CMusEngLiveSession::PauseL(void)
	?GetSessionTime@CMusEngMceSession@@QBE?AVTTimeIntervalSeconds@@XZ @ 57 NONAME ; class TTimeIntervalSeconds CMusEngMceSession::GetSessionTime(void) const
	?Rect@CMusEngSession@@QBE?AVTRect@@XZ @ 58 NONAME ; class TRect CMusEngSession::Rect(void) const
	?Disconnect@DRMCommon@@QAEHXZ @ 59 NONAME ; int DRMCommon::Disconnect(void)
	?FindL@CRepository@@QAEHKKAAV?$RArray@K@@@Z @ 60 NONAME ; int CRepository::FindL(unsigned long, unsigned long, class RArray<unsigned long> &)
	?SetBrightnessL@CMusEngLiveSession@@QBEXH@Z @ 61 NONAME ; void CMusEngLiveSession::SetBrightnessL(int) const
	?IsAudioRoutingLoudSpeaker@CMusEngSession@@QBEHXZ @ 62 NONAME ; int CMusEngSession::IsAudioRoutingLoudSpeaker(void) const
	?NewLC@CMceCameraSource@@SAPAV1@AAVCMceManager@@@Z @ 63 NONAME ; class CMceCameraSource * CMceCameraSource::NewLC(class CMceManager &)
	?ProfilesL@CSIPProfileRegistryBase@@QAEXAAV?$RPointerArray@VCSIPProfile@@@@@Z @ 64 NONAME ; void CSIPProfileRegistryBase::ProfilesL(class RPointerArray<class CSIPProfile> &)
	?ZoomOutL@CMusEngLiveSession@@QAEXXZ @ 65 NONAME ; void CMusEngLiveSession::ZoomOutL(void)
	?ConnectionActive@CMusEngMceSession@@QBEHXZ @ 66 NONAME ; int CMusEngMceSession::ConnectionActive(void) const
	?AudioRoutingCanBeChanged@CMusEngSession@@QBEHXZ @ 67 NONAME ; int CMusEngSession::AudioRoutingCanBeChanged(void) const
	?GetParameter@CSIPProfile@@QBEHKAAH@Z @ 68 NONAME ; int CSIPProfile::GetParameter(unsigned long, int &) const
	?SetWhiteBalanceL@CMceCameraSource@@QAEXW4TWhiteBalance@CCamera@@@Z @ 69 NONAME ; void CMceCameraSource::SetWhiteBalanceL(enum CCamera::TWhiteBalance)
	?RecordL@CMusEngLiveSession@@QAEXH@Z @ 70 NONAME ; void CMusEngLiveSession::RecordL(int)
	??1CCenRepNotifyHandler@@UAE@XZ @ 71 NONAME ; CCenRepNotifyHandler::~CCenRepNotifyHandler(void)
	?FindEqL@CRepository@@QAEHKKABVTDesC8@@AAV?$RArray@K@@@Z @ 72 NONAME ; int CRepository::FindEqL(unsigned long, unsigned long, class TDesC8 const &, class RArray<unsigned long> &)
	?ZoomFactorL@CMceCameraSource@@QAEHXZ @ 73 NONAME ; int CMceCameraSource::ZoomFactorL(void)
	?TerminateL@CMusEngMceSession@@QAEXXZ @ 74 NONAME ; void CMusEngMceSession::TerminateL(void)
	?SetZoomFactorL@CMceCameraSource@@QAEXH@Z @ 75 NONAME ; void CMceCameraSource::SetZoomFactorL(int)
	?SIP@CSIPProfileRegistry@@QBEAAVCSIP@@XZ @ 76 NONAME ; class CSIP & CSIPProfileRegistry::SIP(void) const
	??1CMceMediaSource@@UAE@XZ @ 77 NONAME ; CMceMediaSource::~CMceMediaSource(void)
	?ParseUriL@TMusEngUriParser@@QAEXXZ @ 78 NONAME ; void TMusEngUriParser::ParseUriL(void)
	?ProfileL@CSIPProfileRegistryBase@@QAEPAVCSIPProfile@@K@Z @ 79 NONAME ; class CSIPProfile * CSIPProfileRegistryBase::ProfileL(unsigned long)
	?EnableLoudspeakerL@CMusEngSession@@QAEXHH@Z @ 80 NONAME ; void CMusEngSession::EnableLoudspeakerL(int, int)
	?CancelInviteL@CMusEngMceOutSession@@QAEXXZ @ 81 NONAME ; void CMusEngMceOutSession::CancelInviteL(void)
	?VolumeL@CMusEngSession@@QBEHXZ @ 82 NONAME ; int CMusEngSession::VolumeL(void) const
	?StopListening@CCenRepNotifyHandler@@QAEXXZ @ 83 NONAME ; void CCenRepNotifyHandler::StopListening(void)
	??1CSIPProfileRegistryBase@@UAE@XZ @ 84 NONAME ; CSIPProfileRegistryBase::~CSIPProfileRegistryBase(void)
	?ZoomDefaultL@CMusEngLiveSession@@QAEXXZ @ 85 NONAME ; void CMusEngLiveSession::ZoomDefaultL(void)
	?GetUri16L@TMusEngUriParser@@QAEPAVHBufC16@@H@Z @ 86 NONAME ; class HBufC16 * TMusEngUriParser::GetUri16L(int)
	?NewL@CSIP@@SAPAV1@ABVTUid@@AAVMSIPObserver@@@Z @ 87 NONAME ; class CSIP * CSIP::NewL(class TUid const &, class MSIPObserver &)
	??1CMceCameraSource@@UAE@XZ @ 88 NONAME ; CMceCameraSource::~CMceCameraSource(void)
	?EnableL@CMceCameraSource@@UAEXXZ @ 89 NONAME ; void CMceCameraSource::EnableL(void)
	?VolumeUpL@CMusEngSession@@UAEXXZ @ 90 NONAME ; void CMusEngSession::VolumeUpL(void)
	?GetParameter@CSIPProfile@@QBEHKAAPBVMDesC8Array@@@Z @ 91 NONAME ; int CSIPProfile::GetParameter(unsigned long, class MDesC8Array const * &) const
	?NewL@CRepository@@SAPAV1@VTUid@@@Z @ 92 NONAME ; class CRepository * CRepository::NewL(class TUid)
	?SetVolumeChangeObserver@CMusEngSession@@QAEXPAVMMusEngVolumeChangeObserver@@@Z @ 93 NONAME ; void CMusEngSession::SetVolumeChangeObserver(class MMusEngVolumeChangeObserver *)
	?GetParameter@CSIPProfile@@QBEHKAAK@Z @ 94 NONAME ; int CSIPProfile::GetParameter(unsigned long, unsigned long &) const
	?IsMutedL@CMusEngMceSession@@QAEHXZ @ 95 NONAME ; int CMusEngMceSession::IsMutedL(void)
	??1CSIP@@UAE@XZ @ 96 NONAME ; CSIP::~CSIP(void)
	?Set@CRepository@@QAEHKH@Z @ 97 NONAME ; int CRepository::Set(unsigned long, int)
	?AcceptInvitationL@CMusEngReceiveSession@@QAEXABH@Z @ 98 NONAME ; void CMusEngReceiveSession::AcceptInvitationL(int const &)
	?CurrentZoomL@CMusEngLiveSession@@QBEHXZ @ 99 NONAME ; int CMusEngLiveSession::CurrentZoomL(void) const
	?DisallowMigrationL@CSipProfileAlrController@@QAEXKK@Z @ 100 NONAME ; void CSipProfileAlrController::DisallowMigrationL(unsigned long, unsigned long)
	?MinBrightnessL@CMusEngLiveSession@@QBEHXZ @ 101 NONAME ; int CMusEngLiveSession::MinBrightnessL(void) const
	??1CSIPProfile@@UAE@XZ @ 102 NONAME ; CSIPProfile::~CSIPProfile(void)
	?NewL@CMusEngLiveSession@@SAPAV1@ABVTRect@@AAVMMusEngSessionObserver@@AAVMMusEngOutSessionObserver@@AAVMMusEngLiveSessionObserver@@I@Z @ 103 NONAME ; class CMusEngLiveSession * CMusEngLiveSession::NewL(class TRect const &, class MMusEngSessionObserver &, class MMusEngOutSessionObserver &, class MMusEngLiveSessionObserver &, unsigned int)
	?UnmuteL@CMusEngMceSession@@UAEXXZ @ 104 NONAME ; void CMusEngMceSession::UnmuteL(void)
	?Connect@DRMCommon@@QAEHXZ @ 105 NONAME ; int DRMCommon::Connect(void)
	?NewL@CMceCameraSource@@SAPAV1@AAVCMceManager@@@Z @ 106 NONAME ; class CMceCameraSource * CMceCameraSource::NewL(class CMceManager &)
	?MinZoomL@CMusEngLiveSession@@QBEHXZ @ 107 NONAME ; int CMusEngLiveSession::MinZoomL(void) const
	?Set@CRepository@@QAEHKABVTDesC16@@@Z @ 108 NONAME ; int CRepository::Set(unsigned long, class TDesC16 const &)
	?VolumeDownL@CMusEngSession@@UAEXXZ @ 109 NONAME ; void CMusEngSession::VolumeDownL(void)
	?ExposureL@CMceCameraSource@@QAE?AW4TExposure@CCamera@@XZ @ 110 NONAME ; enum CCamera::TExposure CMceCameraSource::ExposureL(void)
	?MuteL@CMusEngMceSession@@UAEXXZ @ 111 NONAME ; void CMusEngMceSession::MuteL(void)
	?NewLC@CCenRepNotifyHandler@@SAPAV1@AAVMCenRepNotifyHandlerCallback@@AAVCRepository@@@Z @ 112 NONAME ; class CCenRepNotifyHandler * CCenRepNotifyHandler::NewLC(class MCenRepNotifyHandlerCallback &, class CRepository &)
	?SetVolumeL@CMusEngSession@@UAEXH@Z @ 113 NONAME ; void CMusEngSession::SetVolumeL(int)
	?DecreaseBrightnessL@CMusEngLiveSession@@QAEXXZ @ 114 NONAME ; void CMusEngLiveSession::DecreaseBrightnessL(void)
	?LastRegistrationError@CSIPProfileRegistryBase@@QBEHABVCSIPProfile@@@Z @ 115 NONAME ; int CSIPProfileRegistryBase::LastRegistrationError(class CSIPProfile const &) const
	?SetCameraIndexL@CMceCameraSource@@QAEXH@Z @ 116 NONAME ; void CMceCameraSource::SetCameraIndexL(int)
	?PauseL@CMusEngClipSession@@UAEXXZ @ 117 NONAME ; void CMusEngClipSession::PauseL(void)
	?Connection@CSIP@@QBEPAVCSIPConnection@@K@Z @ 118 NONAME ; class CSIPConnection * CSIP::Connection(unsigned long) const
	?SetRectL@CMusEngSession@@QAEXABVTRect@@@Z @ 119 NONAME ; void CMusEngSession::SetRectL(class TRect const &)
	?Create@CRepository@@QAEHKABVTDesC8@@@Z @ 120 NONAME ; int CRepository::Create(unsigned long, class TDesC8 const &)
	?RefreshIapAvailabilityL@CSipProfileAlrController@@QAEXK@Z @ 121 NONAME ; void CSipProfileAlrController::RefreshIapAvailabilityL(unsigned long)
	?DefaultProfileL@CSIPProfileRegistryBase@@QAEPAVCSIPProfile@@XZ @ 122 NONAME ; class CSIPProfile * CSIPProfileRegistryBase::DefaultProfileL(void)
	?BrightnessAutoL@CMusEngLiveSession@@QAEXXZ @ 123 NONAME ; void CMusEngLiveSession::BrightnessAutoL(void)
	?IncreaseBrightnessL@CMusEngLiveSession@@QAEXXZ @ 124 NONAME ; void CMusEngLiveSession::IncreaseBrightnessL(void)
	?ProfilesL@CSIPProfileRegistryBase@@QAEXABVTDesC8@@AAV?$RPointerArray@VCSIPProfile@@@@@Z @ 125 NONAME ; void CSIPProfileRegistryBase::ProfilesL(class TDesC8 const &, class RPointerArray<class CSIPProfile> &)
	??1CSIPProfileRegistry@@UAE@XZ @ 126 NONAME ; CSIPProfileRegistry::~CSIPProfileRegistry(void)
	?SetOrientationL@CMusEngMceSession@@QAEXW4TDisplayOrientation@1@@Z @ 127 NONAME ; void CMusEngMceSession::SetOrientationL(enum CMusEngMceSession::TDisplayOrientation)
	?Get@CRepository@@QAEHKAAVTDes8@@@Z @ 128 NONAME ; int CRepository::Get(unsigned long, class TDes8 &)
	?ConstructL@DRMCommon@@IAEXXZ @ 129 NONAME ; void DRMCommon::ConstructL(void)
	?ContrastL@CMceCameraSource@@QAEHXZ @ 130 NONAME ; int CMceCameraSource::ContrastL(void)
	?NegotiatedSecurityMechanismL@CSIP@@QAEPAVHBufC8@@ABVTDesC8@@@Z @ 131 NONAME ; class HBufC8 * CSIP::NegotiatedSecurityMechanismL(class TDesC8 const &)
	?ZoomInL@CMusEngLiveSession@@QAEXXZ @ 132 NONAME ; void CMusEngLiveSession::ZoomInL(void)
	?NewL@CSipProfileAlrController@@SAPAV1@AAVCSIPProfileRegistryBase@@AAVMSipProfileAlrObserver@@@Z @ 133 NONAME ; class CSipProfileAlrController * CSipProfileAlrController::NewL(class CSIPProfileRegistryBase &, class MSipProfileAlrObserver &)
	?SetVolumeL@CMusEngMceSession@@UAEXH@Z @ 134 NONAME ; void CMusEngMceSession::SetVolumeL(int)
	?Stop@CActiveScheduler@@SAXXZ @ 135 NONAME ; void CActiveScheduler::Stop(void)
	?IsDisplayEnabledL@CMusEngMceSession@@QAEHXZ @ 136 NONAME ; int CMusEngMceSession::IsDisplayEnabledL(void)
	?TranscodeL@CMusEngClipSession@@QAEXABV?$TBuf@$0BAA@@@@Z @ 137 NONAME ; void CMusEngClipSession::TranscodeL(class TBuf<256> const &)
	?MaxZoomL@CMusEngLiveSession@@QBEHXZ @ 138 NONAME ; int CMusEngLiveSession::MaxZoomL(void) const
	?IsSigCompSupportedL@CSIP@@QBEHXZ @ 139 NONAME ; int CSIP::IsSigCompSupportedL(void) const
	?NewLC@CSIP@@SAPAV1@ABVTUid@@AAVMSIPObserver@@@Z @ 140 NONAME ; class CSIP * CSIP::NewLC(class TUid const &, class MSIPObserver &)
	?VolumeDownL@CMusEngMceSession@@UAEXXZ @ 141 NONAME ; void CMusEngMceSession::VolumeDownL(void)
	?AllowMigrationL@CSipProfileAlrController@@QAEXKK@Z @ 142 NONAME ; void CSipProfileAlrController::AllowMigrationL(unsigned long, unsigned long)
	?PositionL@CMusEngClipSession@@QAE?AVTTimeIntervalSeconds@@XZ @ 143 NONAME ; class TTimeIntervalSeconds CMusEngClipSession::PositionL(void)
	?SetContrastL@CMceCameraSource@@QAEXH@Z @ 144 NONAME ; void CMceCameraSource::SetContrastL(int)
	?WhiteBalanceL@CMceCameraSource@@QAE?AW4TWhiteBalance@CCamera@@XZ @ 145 NONAME ; enum CCamera::TWhiteBalance CMceCameraSource::WhiteBalanceL(void)
	??1DRMCommon@@UAE@XZ @ 146 NONAME ; DRMCommon::~DRMCommon(void)
	?MuteMicL@CMusEngSession@@QAEXH@Z @ 147 NONAME ; void CMusEngSession::MuteMicL(int)
	?NewL@CMusEngLiveSession@@SAPAV1@ABVTDesC16@@ABVTRect@@AAVMMusEngSessionObserver@@AAVMMusEngOutSessionObserver@@AAVMMusEngLiveSessionObserver@@I@Z @ 148 NONAME ; class CMusEngLiveSession * CMusEngLiveSession::NewL(class TDesC16 const &, class TRect const &, class MMusEngSessionObserver &, class MMusEngOutSessionObserver &, class MMusEngLiveSessionObserver &, unsigned int)
	?HandleNotifyGeneric@MCenRepNotifyHandlerCallback@@UAEXK@Z @ 149 NONAME ; void MCenRepNotifyHandlerCallback::HandleNotifyGeneric(unsigned long)
	?EnableDisplayL@CMusEngMceSession@@UAEXH@Z @ 150 NONAME ; void CMusEngMceSession::EnableDisplayL(int)
	??0DRMCommon@@IAE@XZ @ 151 NONAME ; DRMCommon::DRMCommon(void)
	?CurrentBrightnessL@CMusEngLiveSession@@QBEHXZ @ 152 NONAME ; int CMusEngLiveSession::CurrentBrightnessL(void) const
	?SupportedProfileTypesL@CSIPProfileRegistryBase@@QAEXAAV?$RArray@VTSIPProfileTypeInfo@@@@@Z @ 153 NONAME ; void CSIPProfileRegistryBase::SupportedProfileTypesL(class RArray<class TSIPProfileTypeInfo> &)
	?Start@CActiveScheduler@@SAXXZ @ 154 NONAME ; void CActiveScheduler::Start(void)
	?SetBrightnessL@CMceCameraSource@@QAEXH@Z @ 155 NONAME ; void CMceCameraSource::SetBrightnessL(int)
	?SetDigitalZoomFactorL@CMceCameraSource@@QAEXH@Z @ 156 NONAME ; void CMceCameraSource::SetDigitalZoomFactorL(int)
	?IsPlayingL@CMusEngLiveSession@@UAEHXZ @ 157 NONAME ; int CMusEngLiveSession::IsPlayingL(void)
	?IsEnabled@CMceMediaSource@@QBEHXZ @ 158 NONAME ; int CMceMediaSource::IsEnabled(void) const
	?PlayL@CMusEngLiveSession@@UAEXXZ @ 159 NONAME ; void CMusEngLiveSession::PlayL(void)
	?SetPositionL@CMusEngClipSession@@QAEXABVTTimeIntervalSeconds@@@Z @ 160 NONAME ; void CMusEngClipSession::SetPositionL(class TTimeIntervalSeconds const &)

