EXPORTS
	??0TMceTransactionDataContainer@@QAE@XZ @ 1 NONAME ; TMceTransactionDataContainer::TMceTransactionDataContainer(void)
	??1CMceAmrCodec@@UAE@XZ @ 2 NONAME ; CMceAmrCodec::~CMceAmrCodec(void)
	??1CMceAudioStream@@UAE@XZ @ 3 NONAME ; CMceAudioStream::~CMceAudioStream(void)
	??1CMceAvcCodec@@UAE@XZ @ 4 NONAME ; CMceAvcCodec::~CMceAvcCodec(void)
	??1CMceCameraSource@@UAE@XZ @ 5 NONAME ; CMceCameraSource::~CMceCameraSource(void)
	??1CMceDisplaySink@@UAE@XZ @ 6 NONAME ; CMceDisplaySink::~CMceDisplaySink(void)
	??1CMceFileSink@@UAE@XZ @ 7 NONAME ; CMceFileSink::~CMceFileSink(void)
	??1CMceFileSource@@UAE@XZ @ 8 NONAME ; CMceFileSource::~CMceFileSource(void)
	??1CMceH263Codec@@UAE@XZ @ 9 NONAME ; CMceH263Codec::~CMceH263Codec(void)
	??1CMceInSession@@UAE@XZ @ 10 NONAME ; CMceInSession::~CMceInSession(void)
	??1CMceManager@@UAE@XZ @ 11 NONAME ; CMceManager::~CMceManager(void)
	??1CMceMediaSink@@UAE@XZ @ 12 NONAME ; CMceMediaSink::~CMceMediaSink(void)
	??1CMceMediaSource@@UAE@XZ @ 13 NONAME ; CMceMediaSource::~CMceMediaSource(void)
	??1CMceMediaStream@@UAE@XZ @ 14 NONAME ; CMceMediaStream::~CMceMediaStream(void)
	??1CMceOutSession@@UAE@XZ @ 15 NONAME ; CMceOutSession::~CMceOutSession(void)
	??1CMceRtpSink@@UAE@XZ @ 16 NONAME ; CMceRtpSink::~CMceRtpSink(void)
	??1CMceRtpSource@@UAE@XZ @ 17 NONAME ; CMceRtpSource::~CMceRtpSource(void)
	??1CMceSession@@UAE@XZ @ 18 NONAME ; CMceSession::~CMceSession(void)
	??1CMceSpeakerSink@@UAE@XZ @ 19 NONAME ; CMceSpeakerSink::~CMceSpeakerSink(void)
	??1CMceStreamBundle@@UAE@XZ @ 20 NONAME ; CMceStreamBundle::~CMceStreamBundle(void)
	??1CMceVideoStream@@UAE@XZ @ 21 NONAME ; CMceVideoStream::~CMceVideoStream(void)
	??1CMusTestSessionSimulator@@QAE@XZ @ 22 NONAME ; CMusTestSessionSimulator::~CMusTestSessionSimulator(void)
	??1CSIP@@UAE@XZ @ 23 NONAME ; CSIP::~CSIP(void)
	??1CSIPManagedProfile@@UAE@XZ @ 24 NONAME ; CSIPManagedProfile::~CSIPManagedProfile(void)
	??1CSIPManagedProfileRegistry@@UAE@XZ @ 25 NONAME ; CSIPManagedProfileRegistry::~CSIPManagedProfileRegistry(void)
	??1CSIPProfile@@UAE@XZ @ 26 NONAME ; CSIPProfile::~CSIPProfile(void)
	??1CSIPProfileRegistry@@UAE@XZ @ 27 NONAME ; CSIPProfileRegistry::~CSIPProfileRegistry(void)
	??1CSIPProfileRegistryBase@@UAE@XZ @ 28 NONAME ; CSIPProfileRegistryBase::~CSIPProfileRegistryBase(void)
	?AcceptL@CMceInSession@@QAEXABVTDesC8@@KPAVCDesC8Array@@PAVHBufC8@@2@Z @ 29 NONAME ; void CMceInSession::AcceptL(class TDesC8 const &, unsigned long, class CDesC8Array *, class HBufC8 *, class HBufC8 *)
	?AcceptL@CMceInSession@@QAEXXZ @ 30 NONAME ; void CMceInSession::AcceptL(void)
	?AddBundleL@CMceSession@@QAEXPAVCMceStreamBundle@@@Z @ 31 NONAME ; void CMceSession::AddBundleL(class CMceStreamBundle *)
	?AddCodecL@CMceAudioStream@@QAEXPAVCMceAudioCodec@@@Z @ 32 NONAME ; void CMceAudioStream::AddCodecL(class CMceAudioCodec *)
	?AddCodecL@CMceVideoStream@@QAEXPAVCMceVideoCodec@@@Z @ 33 NONAME ; void CMceVideoStream::AddCodecL(class CMceVideoCodec *)
	?AddSinkL@CMceMediaStream@@QAEXPAVCMceMediaSink@@@Z @ 34 NONAME ; void CMceMediaStream::AddSinkL(class CMceMediaSink *)
	?AddStreamL@CMceOutSession@@UAEXPAVCMceMediaStream@@@Z @ 35 NONAME ; void CMceOutSession::AddStreamL(class CMceMediaStream *)
	?AddStreamL@CMceSession@@UAEXPAVCMceMediaStream@@@Z @ 36 NONAME ; void CMceSession::AddStreamL(class CMceMediaStream *)
	?AddStreamL@CMceStreamBundle@@QAEXAAVCMceMediaStream@@@Z @ 37 NONAME ; void CMceStreamBundle::AddStreamL(class CMceMediaStream &)
	?AllowedBitrates@CMceCodec@@QBEIXZ @ 38 NONAME ; unsigned int CMceCodec::AllowedBitrates(void) const
	?AllowedFrameRates@CMceVideoCodec@@QBEIXZ @ 39 NONAME ; unsigned int CMceVideoCodec::AllowedFrameRates(void) const
	?AllowedResolutions@CMceVideoCodec@@QBEIXZ @ 40 NONAME ; unsigned int CMceVideoCodec::AllowedResolutions(void) const
	?BindL@CMceMediaStream@@QAEXPAV1@@Z @ 41 NONAME ; void CMceMediaStream::BindL(class CMceMediaStream *)
	?Bitrate@CMceCodec@@QBEIXZ @ 42 NONAME ; unsigned int CMceCodec::Bitrate(void) const
	?BoundStream@CMceMediaStream@@QBEHXZ @ 43 NONAME ; int CMceMediaStream::BoundStream(void) const
	?BoundStreamL@CMceMediaStream@@QBEAAV1@XZ @ 44 NONAME ; class CMceMediaStream & CMceMediaStream::BoundStreamL(void) const
	?BrightnessL@CMceCameraSource@@QAEHXZ @ 45 NONAME ; int CMceCameraSource::BrightnessL(void)
	?Bundles@CMceSession@@QBEABV?$RPointerArray@VCMceStreamBundle@@@@XZ @ 46 NONAME ; class RPointerArray<class CMceStreamBundle> const & CMceSession::Bundles(void) const
	?CamerasAvailable@CMceCameraSource@@QBEHXZ @ 47 NONAME ; int CMceCameraSource::CamerasAvailable(void) const
	?CancelL@CMceOutSession@@QAEXXZ @ 48 NONAME ; void CMceOutSession::CancelL(void)
	?CancelTranscodeL@CMceFileSource@@QAEXXZ @ 49 NONAME ; void CMceFileSource::CancelTranscodeL(void)
	?Clear@TMceTransactionDataContainer@@QAEXXZ @ 50 NONAME ; void TMceTransactionDataContainer::Clear(void)
	?CloneL@CMceAmrCodec@@UBEPAVCMceAudioCodec@@XZ @ 51 NONAME ; class CMceAudioCodec * CMceAmrCodec::CloneL(void) const
	?CloneL@CMceAvcCodec@@UBEPAVCMceVideoCodec@@XZ @ 52 NONAME ; class CMceVideoCodec * CMceAvcCodec::CloneL(void) const
	?CloneL@CMceH263Codec@@UBEPAVCMceVideoCodec@@XZ @ 53 NONAME ; class CMceVideoCodec * CMceH263Codec::CloneL(void) const
	?CodecMode@CMceCodec@@QBEIXZ @ 54 NONAME ; unsigned int CMceCodec::CodecMode(void) const
	?Codecs@CMceAudioStream@@QAEABV?$RPointerArray@VCMceAudioCodec@@@@XZ @ 55 NONAME ; class RPointerArray<class CMceAudioCodec> const & CMceAudioStream::Codecs(void)
	?Codecs@CMceVideoStream@@QAEABV?$RPointerArray@VCMceVideoCodec@@@@XZ @ 56 NONAME ; class RPointerArray<class CMceVideoCodec> const & CMceVideoStream::Codecs(void)
	?ConfigKeyL@CMceVideoCodec@@QBEPAVHBufC8@@XZ @ 57 NONAME ; class HBufC8 * CMceVideoCodec::ConfigKeyL(void) const
	?Connection@CSIP@@QBEPAVCSIPConnection@@K@Z @ 58 NONAME ; class CSIPConnection * CSIP::Connection(unsigned long) const
	?ConnectionActive@CMceSession@@QBEHXZ @ 59 NONAME ; int CMceSession::ConnectionActive(void) const
	?ContrastL@CMceCameraSource@@QAEHXZ @ 60 NONAME ; int CMceCameraSource::ContrastL(void)
	?CurrentMediaElement@CMceFileSource@@QAEHI@Z @ 61 NONAME ; int CMceFileSource::CurrentMediaElement(unsigned int)
	?DefaultHeadersL@CMceManager@@QBEPAVCDesC8Array@@ABVTDesC8@@@Z @ 62 NONAME ; class CDesC8Array * CMceManager::DefaultHeadersL(class TDesC8 const &) const
	?DefaultProfileL@CSIPProfileRegistryBase@@QAEPAVCSIPProfile@@XZ @ 63 NONAME ; class CSIPProfile * CSIPProfileRegistryBase::DefaultProfileL(void)
	?DigitalZoomFactorL@CMceCameraSource@@QAEHXZ @ 64 NONAME ; int CMceCameraSource::DigitalZoomFactorL(void)
	?Disable@CSIPProfileRegistry@@QAEHAAVCSIPProfile@@@Z @ 65 NONAME ; int CSIPProfileRegistry::Disable(class CSIPProfile &)
	?DisableInactivityTimerL@CMceRtpSource@@QAEXXZ @ 66 NONAME ; void CMceRtpSource::DisableInactivityTimerL(void)
	?DisableL@CMceCameraSource@@UAEXXZ @ 67 NONAME ; void CMceCameraSource::DisableL(void)
	?DisableL@CMceDisplaySink@@UAEXXZ @ 68 NONAME ; void CMceDisplaySink::DisableL(void)
	?DisableL@CMceFileSink@@UAEXXZ @ 69 NONAME ; void CMceFileSink::DisableL(void)
	?DisableL@CMceFileSource@@UAEXXZ @ 70 NONAME ; void CMceFileSource::DisableL(void)
	?DisableL@CMceMediaStream@@UAEXXZ @ 71 NONAME ; void CMceMediaStream::DisableL(void)
	?DisableL@CMceRtpSink@@UAEXXZ @ 72 NONAME ; void CMceRtpSink::DisableL(void)
	?DisableL@CMceRtpSource@@UAEXXZ @ 73 NONAME ; void CMceRtpSource::DisableL(void)
	?DisableL@CMceSpeakerSink@@UAEXXZ @ 74 NONAME ; void CMceSpeakerSink::DisableL(void)
	?DisableSsrcL@CMceRtpSource@@QAEXI@Z @ 75 NONAME ; void CMceRtpSource::DisableSsrcL(unsigned int)
	?DisplayRectL@CMceDisplaySink@@QAE?BVTRect@@XZ @ 76 NONAME ; class TRect const CMceDisplaySink::DisplayRectL(void)
	?DisplaysAvailable@CMceDisplaySink@@QBEHXZ @ 77 NONAME ; int CMceDisplaySink::DisplaysAvailable(void) const
	?DurationL@CMceFileSource@@QBE?AVTTimeIntervalMicroSeconds@@XZ @ 78 NONAME ; class TTimeIntervalMicroSeconds CMceFileSource::DurationL(void) const
	?EnableInactivityTimerL@CMceRtpSource@@QAEXK@Z @ 79 NONAME ; void CMceRtpSource::EnableInactivityTimerL(unsigned long)
	?EnableL@CMceCameraSource@@UAEXXZ @ 80 NONAME ; void CMceCameraSource::EnableL(void)
	?EnableL@CMceDisplaySink@@UAEXXZ @ 81 NONAME ; void CMceDisplaySink::EnableL(void)
	?EnableL@CMceFileSink@@UAEXXZ @ 82 NONAME ; void CMceFileSink::EnableL(void)
	?EnableL@CMceFileSource@@UAEXXZ @ 83 NONAME ; void CMceFileSource::EnableL(void)
	?EnableL@CMceMediaStream@@UAEXXZ @ 84 NONAME ; void CMceMediaStream::EnableL(void)
	?EnableL@CMceRtpSink@@UAEXXZ @ 85 NONAME ; void CMceRtpSink::EnableL(void)
	?EnableL@CMceRtpSource@@UAEXXZ @ 86 NONAME ; void CMceRtpSource::EnableL(void)
	?EnableL@CMceSpeakerSink@@UAEXXZ @ 87 NONAME ; void CMceSpeakerSink::EnableL(void)
	?EnableL@CSIPProfileRegistry@@QAEXAAVCSIPProfile@@AAVMSIPConnectionObserver@@@Z @ 88 NONAME ; void CSIPProfileRegistry::EnableL(class CSIPProfile &, class MSIPConnectionObserver &)
	?EnableSsrcL@CMceRtpSource@@QAEXI@Z @ 89 NONAME ; void CMceRtpSource::EnableSsrcL(unsigned int)
	?EnableVAD@CMceAmrCodec@@UAEHH@Z @ 90 NONAME ; int CMceAmrCodec::EnableVAD(int)
	?EstablishL@CMceOutSession@@QAEXKPAVCDesC8Array@@PAVHBufC8@@10@Z @ 91 NONAME ; void CMceOutSession::EstablishL(unsigned long, class CDesC8Array *, class HBufC8 *, class HBufC8 *, class CDesC8Array *)
	?ExposureL@CMceCameraSource@@QAE?AW4TExposure@CCamera@@XZ @ 92 NONAME ; enum CCamera::TExposure CMceCameraSource::ExposureL(void)
	?FourCC@CMceCodec@@QBEKXZ @ 93 NONAME ; unsigned long CMceCodec::FourCC(void) const
	?FrameRate@CMceVideoCodec@@QBENXZ @ 94 NONAME ; double CMceVideoCodec::FrameRate(void) const
	?FrameSize@CMceCodec@@QBEIXZ @ 95 NONAME ; unsigned int CMceCodec::FrameSize(void) const
	?GetCameraInfo@CMceCameraSource@@QBEXAAVTCameraInfo@@@Z @ 96 NONAME ; void CMceCameraSource::GetCameraInfo(class TCameraInfo &) const
	?GetContent@TMceTransactionDataContainer@@QAEPAVHBufC8@@XZ @ 97 NONAME ; class HBufC8 * TMceTransactionDataContainer::GetContent(void)
	?GetContentHeaders@TMceTransactionDataContainer@@QAEPAVCDesC8Array@@XZ @ 98 NONAME ; class CDesC8Array * TMceTransactionDataContainer::GetContentHeaders(void)
	?GetContentType@TMceTransactionDataContainer@@QAEPAVHBufC8@@XZ @ 99 NONAME ; class HBufC8 * TMceTransactionDataContainer::GetContentType(void)
	?GetHeaders@TMceTransactionDataContainer@@QAEPAVCDesC8Array@@XZ @ 100 NONAME ; class CDesC8Array * TMceTransactionDataContainer::GetHeaders(void)
	?GetModifierL@CMceSession@@QBEXKAAI@Z @ 101 NONAME ; void CMceSession::GetModifierL(unsigned long, unsigned int &) const
	?GetParameter@CSIPProfile@@QBEHKAAH@Z @ 102 NONAME ; int CSIPProfile::GetParameter(unsigned long, int &) const
	?GetParameter@CSIPProfile@@QBEHKAAK@Z @ 103 NONAME ; int CSIPProfile::GetParameter(unsigned long, unsigned long &) const
	?GetParameter@CSIPProfile@@QBEHKAAPBVMDesC8Array@@@Z @ 104 NONAME ; int CSIPProfile::GetParameter(unsigned long, class MDesC8Array const * &) const
	?GetParameter@CSIPProfile@@QBEHKAAPBVTDesC8@@@Z @ 105 NONAME ; int CSIPProfile::GetParameter(unsigned long, class TDesC8 const * &) const
	?GetReasonPhrase@TMceTransactionDataContainer@@QAEPAVHBufC8@@XZ @ 106 NONAME ; class HBufC8 * TMceTransactionDataContainer::GetReasonPhrase(void)
	?GetStatusCode@TMceTransactionDataContainer@@QAEHXZ @ 107 NONAME ; int TMceTransactionDataContainer::GetStatusCode(void)
	?IsEnabled@CMceMediaSink@@QBEHXZ @ 108 NONAME ; int CMceMediaSink::IsEnabled(void) const
	?IsEnabled@CMceMediaSource@@QBEHXZ @ 109 NONAME ; int CMceMediaSource::IsEnabled(void) const
	?IsEnabled@CMceMediaStream@@QBEHXZ @ 110 NONAME ; int CMceMediaStream::IsEnabled(void) const
	?IsEnabled@CSIPProfileRegistry@@QBEHABVCSIPProfile@@@Z @ 111 NONAME ; int CSIPProfileRegistry::IsEnabled(class CSIPProfile const &) const
	?IsSigCompSupportedL@CSIP@@QBEHXZ @ 112 NONAME ; int CSIP::IsSigCompSupportedL(void) const
	?IsSsrcEnabledL@CMceRtpSource@@QAEHI@Z @ 113 NONAME ; int CMceRtpSource::IsSsrcEnabledL(unsigned int)
	?KeepAliveData@CMceCodec@@QBEABVTDesC8@@XZ @ 114 NONAME ; class TDesC8 const & CMceCodec::KeepAliveData(void) const
	?KeepAlivePayloadType@CMceCodec@@QBEEXZ @ 115 NONAME ; unsigned char CMceCodec::KeepAlivePayloadType(void) const
	?KeepAliveTimer@CMceCodec@@QBEEXZ @ 116 NONAME ; unsigned char CMceCodec::KeepAliveTimer(void) const
	?LastPacket@CMceRtpSink@@QBEKXZ @ 117 NONAME ; unsigned long CMceRtpSink::LastPacket(void) const
	?LastRegistrationError@CSIPProfileRegistryBase@@QBEHABVCSIPProfile@@@Z @ 118 NONAME ; int CSIPProfileRegistryBase::LastRegistrationError(class CSIPProfile const &) const
	?LocalMediaPort@CMceMediaStream@@QBEIXZ @ 119 NONAME ; unsigned int CMceMediaStream::LocalMediaPort(void) const
	?MMFPriority@CMceCodec@@QBEHXZ @ 120 NONAME ; int CMceCodec::MMFPriority(void) const
	?MMFPriorityPreference@CMceCodec@@QBEHXZ @ 121 NONAME ; int CMceCodec::MMFPriorityPreference(void) const
	?MaxBitRate@CMceVideoCodec@@QBEIXZ @ 122 NONAME ; unsigned int CMceVideoCodec::MaxBitRate(void) const
	?MaxVolumeL@CMceSpeakerSink@@QBEHXZ @ 123 NONAME ; int CMceSpeakerSink::MaxVolumeL(void) const
	?MediaAttributeLinesL@CMceMediaStream@@QAEPAVMDesC8Array@@XZ @ 124 NONAME ; class MDesC8Array * CMceMediaStream::MediaAttributeLinesL(void)
	?MediaElementCountL@CMceFileSource@@QBEHI@Z @ 125 NONAME ; int CMceFileSource::MediaElementCountL(unsigned int) const
	?NegotiatedSecurityMechanismL@CSIP@@QAEPAVHBufC8@@ABVTDesC8@@@Z @ 126 NONAME ; class HBufC8 * CSIP::NegotiatedSecurityMechanismL(class TDesC8 const &)
	?NewL@CMceAudioStream@@SAPAV1@XZ @ 127 NONAME ; class CMceAudioStream * CMceAudioStream::NewL(void)
	?NewL@CMceAvcCodec@@SAPAV1@V?$TBuf8@$0BE@@@@Z @ 128 NONAME ; class CMceAvcCodec * CMceAvcCodec::NewL(class TBuf8<20>)
	?NewL@CMceCameraSource@@SAPAV1@AAVCMceManager@@@Z @ 129 NONAME ; class CMceCameraSource * CMceCameraSource::NewL(class CMceManager &)
	?NewL@CMceCameraSource@@SAPAV1@XZ @ 130 NONAME ; class CMceCameraSource * CMceCameraSource::NewL(void)
	?NewL@CMceDisplaySink@@SAPAV1@AAVCMceManager@@@Z @ 131 NONAME ; class CMceDisplaySink * CMceDisplaySink::NewL(class CMceManager &)
	?NewL@CMceDisplaySink@@SAPAV1@XZ @ 132 NONAME ; class CMceDisplaySink * CMceDisplaySink::NewL(void)
	?NewL@CMceFileSink@@SAPAV1@ABV?$TBuf@$0BAA@@@@Z @ 133 NONAME ; class CMceFileSink * CMceFileSink::NewL(class TBuf<256> const &)
	?NewL@CMceFileSource@@SAPAV1@AAVCMceManager@@ABV?$TBuf@$0BAA@@@@Z @ 134 NONAME ; class CMceFileSource * CMceFileSource::NewL(class CMceManager &, class TBuf<256> const &)
	?NewL@CMceH263Codec@@SAPAV1@V?$TBuf8@$0BE@@@@Z @ 135 NONAME ; class CMceH263Codec * CMceH263Codec::NewL(class TBuf8<20>)
	?NewL@CMceInSession@@SAPAV1@AAVCMceManager@@ABVTDesC8@@@Z @ 136 NONAME ; class CMceInSession * CMceInSession::NewL(class CMceManager &, class TDesC8 const &)
	?NewL@CMceInSession@@SAPAV1@XZ @ 137 NONAME ; class CMceInSession * CMceInSession::NewL(void)
	?NewL@CMceManager@@SAPAV1@ABVTUid@@PAVTMceTransactionDataContainer@@@Z @ 138 NONAME ; class CMceManager * CMceManager::NewL(class TUid const &, class TMceTransactionDataContainer *)
	?NewL@CMceOutSession@@SAPAV1@AAVCMceEvent@@@Z @ 139 NONAME ; class CMceOutSession * CMceOutSession::NewL(class CMceEvent &)
	?NewL@CMceOutSession@@SAPAV1@AAVCMceManager@@AAVCSIPProfile@@ABVTDesC8@@PAVHBufC8@@@Z @ 140 NONAME ; class CMceOutSession * CMceOutSession::NewL(class CMceManager &, class CSIPProfile &, class TDesC8 const &, class HBufC8 *)
	?NewL@CMceOutSession@@SAPAV1@AAVCMceRefer@@@Z @ 141 NONAME ; class CMceOutSession * CMceOutSession::NewL(class CMceRefer &)
	?NewL@CMceOutSession@@SAPAV1@XZ @ 142 NONAME ; class CMceOutSession * CMceOutSession::NewL(void)
	?NewL@CMceRtpSink@@SAPAV1@HPAVHBufC8@@@Z @ 143 NONAME ; class CMceRtpSink * CMceRtpSink::NewL(int, class HBufC8 *)
	?NewL@CMceRtpSink@@SAPAV1@XZ @ 144 NONAME ; class CMceRtpSink * CMceRtpSink::NewL(void)
	?NewL@CMceRtpSource@@SAPAV1@IIKPAVHBufC8@@@Z @ 145 NONAME ; class CMceRtpSource * CMceRtpSource::NewL(unsigned int, unsigned int, unsigned long, class HBufC8 *)
	?NewL@CMceSpeakerSink@@SAPAV1@XZ @ 146 NONAME ; class CMceSpeakerSink * CMceSpeakerSink::NewL(void)
	?NewL@CMceStreamBundle@@SAPAV1@W4TMceStreamBundleType@1@@Z @ 147 NONAME ; class CMceStreamBundle * CMceStreamBundle::NewL(enum CMceStreamBundle::TMceStreamBundleType)
	?NewL@CMceVideoStream@@SAPAV1@XZ @ 148 NONAME ; class CMceVideoStream * CMceVideoStream::NewL(void)
	?NewL@CSIP@@SAPAV1@ABVTUid@@AAVMSIPObserver@@@Z @ 149 NONAME ; class CSIP * CSIP::NewL(class TUid const &, class MSIPObserver &)
	?NewL@CSIPManagedProfileRegistry@@SAPAV1@AAVMSIPProfileRegistryObserver@@@Z @ 150 NONAME ; class CSIPManagedProfileRegistry * CSIPManagedProfileRegistry::NewL(class MSIPProfileRegistryObserver &)
	?NewL@CSIPProfileRegistry@@SAPAV1@AAVCSIP@@AAVMSIPProfileRegistryObserver@@@Z @ 151 NONAME ; class CSIPProfileRegistry * CSIPProfileRegistry::NewL(class CSIP &, class MSIPProfileRegistryObserver &)
	?NewLC@CMceAudioStream@@SAPAV1@XZ @ 152 NONAME ; class CMceAudioStream * CMceAudioStream::NewLC(void)
	?NewLC@CMceAvcCodec@@SAPAV1@V?$TBuf8@$0BE@@@@Z @ 153 NONAME ; class CMceAvcCodec * CMceAvcCodec::NewLC(class TBuf8<20>)
	?NewLC@CMceCameraSource@@SAPAV1@AAVCMceManager@@@Z @ 154 NONAME ; class CMceCameraSource * CMceCameraSource::NewLC(class CMceManager &)
	?NewLC@CMceCameraSource@@SAPAV1@XZ @ 155 NONAME ; class CMceCameraSource * CMceCameraSource::NewLC(void)
	?NewLC@CMceDisplaySink@@SAPAV1@AAVCMceManager@@@Z @ 156 NONAME ; class CMceDisplaySink * CMceDisplaySink::NewLC(class CMceManager &)
	?NewLC@CMceDisplaySink@@SAPAV1@XZ @ 157 NONAME ; class CMceDisplaySink * CMceDisplaySink::NewLC(void)
	?NewLC@CMceFileSink@@SAPAV1@ABV?$TBuf@$0BAA@@@@Z @ 158 NONAME ; class CMceFileSink * CMceFileSink::NewLC(class TBuf<256> const &)
	?NewLC@CMceFileSource@@SAPAV1@AAVCMceManager@@ABV?$TBuf@$0BAA@@@@Z @ 159 NONAME ; class CMceFileSource * CMceFileSource::NewLC(class CMceManager &, class TBuf<256> const &)
	?NewLC@CMceH263Codec@@SAPAV1@V?$TBuf8@$0BE@@@@Z @ 160 NONAME ; class CMceH263Codec * CMceH263Codec::NewLC(class TBuf8<20>)
	?NewLC@CMceRtpSink@@SAPAV1@XZ @ 161 NONAME ; class CMceRtpSink * CMceRtpSink::NewLC(void)
	?NewLC@CMceRtpSource@@SAPAV1@IIKPAVHBufC8@@@Z @ 162 NONAME ; class CMceRtpSource * CMceRtpSource::NewLC(unsigned int, unsigned int, unsigned long, class HBufC8 *)
	?NewLC@CMceSpeakerSink@@SAPAV1@XZ @ 163 NONAME ; class CMceSpeakerSink * CMceSpeakerSink::NewLC(void)
	?NewLC@CMceStreamBundle@@SAPAV1@W4TMceStreamBundleType@1@@Z @ 164 NONAME ; class CMceStreamBundle * CMceStreamBundle::NewLC(enum CMceStreamBundle::TMceStreamBundleType)
	?NewLC@CMceVideoStream@@SAPAV1@XZ @ 165 NONAME ; class CMceVideoStream * CMceVideoStream::NewLC(void)
	?NewLC@CSIP@@SAPAV1@ABVTUid@@AAVMSIPObserver@@@Z @ 166 NONAME ; class CSIP * CSIP::NewLC(class TUid const &, class MSIPObserver &)
	?NewLC@CSIPManagedProfileRegistry@@SAPAV1@AAVMSIPProfileRegistryObserver@@@Z @ 167 NONAME ; class CSIPManagedProfileRegistry * CSIPManagedProfileRegistry::NewLC(class MSIPProfileRegistryObserver &)
	?NewLC@CSIPProfileRegistry@@SAPAV1@AAVCSIP@@AAVMSIPProfileRegistryObserver@@@Z @ 168 NONAME ; class CSIPProfileRegistry * CSIPProfileRegistry::NewLC(class CSIP &, class MSIPProfileRegistryObserver &)
	?Originator@CMceSession@@QBEABVTDesC8@@XZ @ 169 NONAME ; class TDesC8 const & CMceSession::Originator(void) const
	?PayloadType@CMceCodec@@QBEEXZ @ 170 NONAME ; unsigned char CMceCodec::PayloadType(void) const
	?PositionL@CMceFileSource@@QBE?AVTTimeIntervalMicroSeconds@@XZ @ 171 NONAME ; class TTimeIntervalMicroSeconds CMceFileSource::PositionL(void) const
	?Preference@CMceCodec@@QBEHXZ @ 172 NONAME ; int CMceCodec::Preference(void) const
	?PriorityL@CMceDisplaySink@@QAEIXZ @ 173 NONAME ; unsigned int CMceDisplaySink::PriorityL(void)
	?Profile@CMceSession@@QBEKXZ @ 174 NONAME ; unsigned long CMceSession::Profile(void) const
	?ProfileL@CSIPProfileRegistryBase@@QAEPAVCSIPProfile@@K@Z @ 175 NONAME ; class CSIPProfile * CSIPProfileRegistryBase::ProfileL(unsigned long)
	?ProfilesL@CSIPProfileRegistryBase@@QAEXAAV?$RPointerArray@VCSIPProfile@@@@@Z @ 176 NONAME ; void CSIPProfileRegistryBase::ProfilesL(class RPointerArray<class CSIPProfile> &)
	?ProfilesL@CSIPProfileRegistryBase@@QAEXABVTDesC8@@AAV?$RPointerArray@VCSIPProfile@@@@@Z @ 177 NONAME ; void CSIPProfileRegistryBase::ProfilesL(class TDesC8 const &, class RPointerArray<class CSIPProfile> &)
	?ProfilesL@CSIPProfileRegistryBase@@QAEXABVTSIPProfileTypeInfo@@AAV?$RPointerArray@VCSIPProfile@@@@@Z @ 178 NONAME ; void CSIPProfileRegistryBase::ProfilesL(class TSIPProfileTypeInfo const &, class RPointerArray<class CSIPProfile> &)
	?Recipient@CMceSession@@QBEABVTDesC8@@XZ @ 179 NONAME ; class TDesC8 const & CMceSession::Recipient(void) const
	?RejectL@CMceInSession@@QAEXABVTDesC8@@KPAVCDesC8Array@@PAVHBufC8@@2@Z @ 180 NONAME ; void CMceInSession::RejectL(class TDesC8 const &, unsigned long, class CDesC8Array *, class HBufC8 *, class HBufC8 *)
	?RejectL@CMceInSession@@QAEXXZ @ 181 NONAME ; void CMceInSession::RejectL(void)
	?RemoveBundleL@CMceSession@@QAEXAAVCMceStreamBundle@@@Z @ 182 NONAME ; void CMceSession::RemoveBundleL(class CMceStreamBundle &)
	?RemoveCodecL@CMceAudioStream@@QAEXAAVCMceAudioCodec@@@Z @ 183 NONAME ; void CMceAudioStream::RemoveCodecL(class CMceAudioCodec &)
	?RemoveCodecL@CMceVideoStream@@QAEXAAVCMceVideoCodec@@@Z @ 184 NONAME ; void CMceVideoStream::RemoveCodecL(class CMceVideoCodec &)
	?RemoveSinkL@CMceMediaStream@@QAEXAAVCMceMediaSink@@@Z @ 185 NONAME ; void CMceMediaStream::RemoveSinkL(class CMceMediaSink &)
	?RemoveStreamL@CMceSession@@QAEXAAVCMceMediaStream@@@Z @ 186 NONAME ; void CMceSession::RemoveStreamL(class CMceMediaStream &)
	?RemoveStreamL@CMceStreamBundle@@QAEXAAVCMceMediaStream@@@Z @ 187 NONAME ; void CMceStreamBundle::RemoveStreamL(class CMceMediaStream &)
	?ReplaceCodecsL@CMceVideoStream@@QAEXPAV?$RPointerArray@VCMceVideoCodec@@@@@Z @ 188 NONAME ; void CMceVideoStream::ReplaceCodecsL(class RPointerArray<class CMceVideoCodec> *)
	?Resolution@CMceVideoCodec@@QBE?AVTSize@@XZ @ 189 NONAME ; class TSize CMceVideoCodec::Resolution(void) const
	?RingL@CMceInSession@@QAEXPAVCDesC8Array@@PAVHBufC8@@1@Z @ 190 NONAME ; void CMceInSession::RingL(class CDesC8Array *, class HBufC8 *, class HBufC8 *)
	?RotationL@CMceDisplaySink@@QAE?AW4TRotation@1@XZ @ 191 NONAME ; enum CMceDisplaySink::TRotation CMceDisplaySink::RotationL(void)
	?RoutingL@CMceSpeakerSink@@QBEHXZ @ 192 NONAME ; int CMceSpeakerSink::RoutingL(void) const
	?SIP@CSIPProfileRegistry@@QBEAAVCSIP@@XZ @ 193 NONAME ; class CSIP & CSIPProfileRegistry::SIP(void) const
	?SaveL@CSIPManagedProfileRegistry@@QAEXAAVCSIPProfile@@@Z @ 194 NONAME ; void CSIPManagedProfileRegistry::SaveL(class CSIPProfile &)
	?SdpName@CMceCodec@@QBEABVTDesC8@@XZ @ 195 NONAME ; class TDesC8 const & CMceCodec::SdpName(void) const
	?SendRRL@CMceRtpSource@@QAEXXZ @ 196 NONAME ; void CMceRtpSource::SendRRL(void)
	?SendSRL@CMceRtpSink@@QAEXXZ @ 197 NONAME ; void CMceRtpSink::SendSRL(void)
	?Session@CMceMediaStream@@QBEPAVCMceSession@@XZ @ 198 NONAME ; class CMceSession * CMceMediaStream::Session(void) const
	?SessionSDPLinesL@CMceSession@@QAEPAVMDesC8Array@@XZ @ 199 NONAME ; class MDesC8Array * CMceSession::SessionSDPLinesL(void)
	?SessionTimer@CMceSession@@QBEKXZ @ 200 NONAME ; unsigned long CMceSession::SessionTimer(void) const
	?Sessions@CMceManager@@QBEABV?$RPointerArray@VCMceSession@@@@XZ @ 201 NONAME ; class RPointerArray<class CMceSession> const & CMceManager::Sessions(void) const
	?SetAllowedBitrates@CMceAmrCodec@@UAEHI@Z @ 202 NONAME ; int CMceAmrCodec::SetAllowedBitrates(unsigned int)
	?SetAllowedBitrates@CMceAvcCodec@@UAEHI@Z @ 203 NONAME ; int CMceAvcCodec::SetAllowedBitrates(unsigned int)
	?SetAllowedBitrates@CMceH263Codec@@UAEHI@Z @ 204 NONAME ; int CMceH263Codec::SetAllowedBitrates(unsigned int)
	?SetAllowedFrameRatesL@CMceAvcCodec@@UAEXI@Z @ 205 NONAME ; void CMceAvcCodec::SetAllowedFrameRatesL(unsigned int)
	?SetAllowedFrameRatesL@CMceH263Codec@@UAEXI@Z @ 206 NONAME ; void CMceH263Codec::SetAllowedFrameRatesL(unsigned int)
	?SetAllowedResolutionsL@CMceAvcCodec@@UAEXI@Z @ 207 NONAME ; void CMceAvcCodec::SetAllowedResolutionsL(unsigned int)
	?SetAllowedResolutionsL@CMceH263Codec@@UAEXI@Z @ 208 NONAME ; void CMceH263Codec::SetAllowedResolutionsL(unsigned int)
	?SetBitrate@CMceAmrCodec@@UAEHI@Z @ 209 NONAME ; int CMceAmrCodec::SetBitrate(unsigned int)
	?SetBitrate@CMceAvcCodec@@UAEHI@Z @ 210 NONAME ; int CMceAvcCodec::SetBitrate(unsigned int)
	?SetBitrate@CMceH263Codec@@UAEHI@Z @ 211 NONAME ; int CMceH263Codec::SetBitrate(unsigned int)
	?SetBrightnessL@CMceCameraSource@@QAEXH@Z @ 212 NONAME ; void CMceCameraSource::SetBrightnessL(int)
	?SetCameraIndexL@CMceCameraSource@@QAEXH@Z @ 213 NONAME ; void CMceCameraSource::SetCameraIndexL(int)
	?SetCodecMode@CMceAmrCodec@@UAEHI@Z @ 214 NONAME ; int CMceAmrCodec::SetCodecMode(unsigned int)
	?SetCodecMode@CMceAvcCodec@@UAEHI@Z @ 215 NONAME ; int CMceAvcCodec::SetCodecMode(unsigned int)
	?SetCodecMode@CMceH263Codec@@UAEHI@Z @ 216 NONAME ; int CMceH263Codec::SetCodecMode(unsigned int)
	?SetConfigKeyL@CMceAvcCodec@@UAEXABVTDesC8@@@Z @ 217 NONAME ; void CMceAvcCodec::SetConfigKeyL(class TDesC8 const &)
	?SetConfigKeyL@CMceH263Codec@@UAEXABVTDesC8@@@Z @ 218 NONAME ; void CMceH263Codec::SetConfigKeyL(class TDesC8 const &)
	?SetContent@TMceTransactionDataContainer@@QAEXPAVHBufC8@@@Z @ 219 NONAME ; void TMceTransactionDataContainer::SetContent(class HBufC8 *)
	?SetContentHeaders@TMceTransactionDataContainer@@QAEXPAVCDesC8Array@@@Z @ 220 NONAME ; void TMceTransactionDataContainer::SetContentHeaders(class CDesC8Array *)
	?SetContentType@TMceTransactionDataContainer@@QAEXPAVHBufC8@@@Z @ 221 NONAME ; void TMceTransactionDataContainer::SetContentType(class HBufC8 *)
	?SetContrastL@CMceCameraSource@@QAEXH@Z @ 222 NONAME ; void CMceCameraSource::SetContrastL(int)
	?SetCurrentMediaElementL@CMceFileSource@@QAEXIH@Z @ 223 NONAME ; void CMceFileSource::SetCurrentMediaElementL(unsigned int, int)
	?SetDefaultHeadersL@CMceManager@@QAEXPAVCDesC8Array@@0@Z @ 224 NONAME ; void CMceManager::SetDefaultHeadersL(class CDesC8Array *, class CDesC8Array *)
	?SetDigitalZoomFactorL@CMceCameraSource@@QAEXH@Z @ 225 NONAME ; void CMceCameraSource::SetDigitalZoomFactorL(int)
	?SetDisplay@CMceDisplaySink@@QAEXAAVRWindow@@AAVCWindowGc@@@Z @ 226 NONAME ; void CMceDisplaySink::SetDisplay(class RWindow &, class CWindowGc &)
	?SetDisplayIndexL@CMceDisplaySink@@QAEXH@Z @ 227 NONAME ; void CMceDisplaySink::SetDisplayIndexL(int)
	?SetDisplayRectL@CMceDisplaySink@@QAEXABVTRect@@@Z @ 228 NONAME ; void CMceDisplaySink::SetDisplayRectL(class TRect const &)
	?SetEventObserver@CMceManager@@QAEXPAVMMceEventObserver@@@Z @ 229 NONAME ; void CMceManager::SetEventObserver(class MMceEventObserver *)
	?SetExposureL@CMceCameraSource@@QAEXW4TExposure@CCamera@@@Z @ 230 NONAME ; void CMceCameraSource::SetExposureL(enum CCamera::TExposure)
	?SetFastForwardL@CMceFileSource@@QAEXH@Z @ 231 NONAME ; void CMceFileSource::SetFastForwardL(int)
	?SetFastRewindL@CMceFileSource@@QAEXH@Z @ 232 NONAME ; void CMceFileSource::SetFastRewindL(int)
	?SetFrameRateL@CMceAvcCodec@@UAEXN@Z @ 233 NONAME ; void CMceAvcCodec::SetFrameRateL(double)
	?SetFrameRateL@CMceH263Codec@@UAEXN@Z @ 234 NONAME ; void CMceH263Codec::SetFrameRateL(double)
	?SetHeaders@TMceTransactionDataContainer@@QAEXPAVCDesC8Array@@@Z @ 235 NONAME ; void TMceTransactionDataContainer::SetHeaders(class CDesC8Array *)
	?SetInEventObserver@CMceManager@@QAEXPAVMMceInEventObserver@@@Z @ 236 NONAME ; void CMceManager::SetInEventObserver(class MMceInEventObserver *)
	?SetInReferObserver@CMceManager@@QAEXPAVMMceInReferObserver@@@Z @ 237 NONAME ; void CMceManager::SetInReferObserver(class MMceInReferObserver *)
	?SetInSessionObserver@CMceManager@@QAEXPAVMMceInSessionObserver@@@Z @ 238 NONAME ; void CMceManager::SetInSessionObserver(class MMceInSessionObserver *)
	?SetKeepAliveDataL@CMceCodec@@QAEXABVTDesC8@@@Z @ 239 NONAME ; void CMceCodec::SetKeepAliveDataL(class TDesC8 const &)
	?SetKeepAlivePayloadTypeL@CMceCodec@@QAEXE@Z @ 240 NONAME ; void CMceCodec::SetKeepAlivePayloadTypeL(unsigned char)
	?SetKeepAliveTimerL@CMceCodec@@QAEXE@Z @ 241 NONAME ; void CMceCodec::SetKeepAliveTimerL(unsigned char)
	?SetLocalMediaPortL@CMceMediaStream@@QAEXI@Z @ 242 NONAME ; void CMceMediaStream::SetLocalMediaPortL(unsigned int)
	?SetMMFPriorityL@CMceCodec@@QAEXH@Z @ 243 NONAME ; void CMceCodec::SetMMFPriorityL(int)
	?SetMMFPriorityPreferenceL@CMceCodec@@QAEXH@Z @ 244 NONAME ; void CMceCodec::SetMMFPriorityPreferenceL(int)
	?SetMaxBitrateL@CMceAvcCodec@@UAEXI@Z @ 245 NONAME ; void CMceAvcCodec::SetMaxBitrateL(unsigned int)
	?SetMaxBitrateL@CMceH263Codec@@UAEXI@Z @ 246 NONAME ; void CMceH263Codec::SetMaxBitrateL(unsigned int)
	?SetMaxPTime@CMceAmrCodec@@UAEHI@Z @ 247 NONAME ; int CMceAmrCodec::SetMaxPTime(unsigned int)
	?SetMediaAttributeLinesL@CMceMediaStream@@QAEXPAVCDesC8Array@@@Z @ 248 NONAME ; void CMceMediaStream::SetMediaAttributeLinesL(class CDesC8Array *)
	?SetMediaObserver@CMceManager@@QAEXPAVMMceStreamObserver@@@Z @ 249 NONAME ; void CMceManager::SetMediaObserver(class MMceStreamObserver *)
	?SetModifierL@CMceSession@@QAEXKI@Z @ 250 NONAME ; void CMceSession::SetModifierL(unsigned long, unsigned int)
	?SetPTime@CMceAmrCodec@@UAEHI@Z @ 251 NONAME ; int CMceAmrCodec::SetPTime(unsigned int)
	?SetParameter@CSIPManagedProfile@@QAEHKABVMDesC8Array@@@Z @ 252 NONAME ; int CSIPManagedProfile::SetParameter(unsigned long, class MDesC8Array const &)
	?SetPayloadType@CMceAmrCodec@@UAEHE@Z @ 253 NONAME ; int CMceAmrCodec::SetPayloadType(unsigned char)
	?SetPayloadType@CMceAvcCodec@@UAEHE@Z @ 254 NONAME ; int CMceAvcCodec::SetPayloadType(unsigned char)
	?SetPayloadType@CMceH263Codec@@UAEHE@Z @ 255 NONAME ; int CMceH263Codec::SetPayloadType(unsigned char)
	?SetPositionL@CMceFileSource@@QAEXABVTTimeIntervalMicroSeconds@@@Z @ 256 NONAME ; void CMceFileSource::SetPositionL(class TTimeIntervalMicroSeconds const &)
	?SetPreferenceL@CMceCodec@@QAEXH@Z @ 257 NONAME ; void CMceCodec::SetPreferenceL(int)
	?SetPreferredEncodingDecodingDeviceL@CMceAvcCodec@@UAEXVTUid@@@Z @ 258 NONAME ; void CMceAvcCodec::SetPreferredEncodingDecodingDeviceL(class TUid)
	?SetPreferredEncodingDecodingDeviceL@CMceH263Codec@@UAEXVTUid@@@Z @ 259 NONAME ; void CMceH263Codec::SetPreferredEncodingDecodingDeviceL(class TUid)
	?SetPriorityL@CMceDisplaySink@@QAEXI@Z @ 260 NONAME ; void CMceDisplaySink::SetPriorityL(unsigned int)
	?SetReasonPhrase@TMceTransactionDataContainer@@QAEXPAVHBufC8@@@Z @ 261 NONAME ; void TMceTransactionDataContainer::SetReasonPhrase(class HBufC8 *)
	?SetReferObserver@CMceManager@@QAEXPAVMMceReferObserver@@@Z @ 262 NONAME ; void CMceManager::SetReferObserver(class MMceReferObserver *)
	?SetResolutionL@CMceAvcCodec@@UAEXVTSize@@@Z @ 263 NONAME ; void CMceAvcCodec::SetResolutionL(class TSize)
	?SetResolutionL@CMceH263Codec@@UAEXVTSize@@@Z @ 264 NONAME ; void CMceH263Codec::SetResolutionL(class TSize)
	?SetRotationL@CMceDisplaySink@@QAEXW4TRotation@1@@Z @ 265 NONAME ; void CMceDisplaySink::SetRotationL(enum CMceDisplaySink::TRotation)
	?SetRoutingL@CMceSpeakerSink@@QAEXH@Z @ 266 NONAME ; void CMceSpeakerSink::SetRoutingL(int)
	?SetRtpObserver@CMceManager@@QAEXPAVMMceRtpObserver@@@Z @ 267 NONAME ; void CMceManager::SetRtpObserver(class MMceRtpObserver *)
	?SetSamplingFreq@CMceAmrCodec@@UAEHI@Z @ 268 NONAME ; int CMceAmrCodec::SetSamplingFreq(unsigned int)
	?SetSessionObserver@CMceManager@@QAEXPAVMMceSessionObserver@@@Z @ 269 NONAME ; void CMceManager::SetSessionObserver(class MMceSessionObserver *)
	?SetSessionSDPLinesL@CMceSession@@QAEXPAVCDesC8Array@@@Z @ 270 NONAME ; void CMceSession::SetSessionSDPLinesL(class CDesC8Array *)
	?SetSourceL@CMceMediaStream@@QAEXPAVCMceMediaSource@@@Z @ 271 NONAME ; void CMceMediaStream::SetSourceL(class CMceMediaSource *)
	?SetStandByTimerL@CMceCodec@@QAEXK@Z @ 272 NONAME ; void CMceCodec::SetStandByTimerL(unsigned long)
	?SetStateL@CMceCodec@@QAEXW4TState@1@@Z @ 273 NONAME ; void CMceCodec::SetStateL(enum CMceCodec::TState)
	?SetStatusCode@TMceTransactionDataContainer@@QAEXH@Z @ 274 NONAME ; void TMceTransactionDataContainer::SetStatusCode(int)
	?SetVolumeL@CMceSpeakerSink@@QAEXH@Z @ 275 NONAME ; void CMceSpeakerSink::SetVolumeL(int)
	?SetWhiteBalanceL@CMceCameraSource@@QAEXW4TWhiteBalance@CCamera@@@Z @ 276 NONAME ; void CMceCameraSource::SetWhiteBalanceL(enum CCamera::TWhiteBalance)
	?SetZoomFactorL@CMceCameraSource@@QAEXH@Z @ 277 NONAME ; void CMceCameraSource::SetZoomFactorL(int)
	?Sinks@CMceMediaStream@@QBEABV?$RPointerArray@VCMceMediaSink@@@@XZ @ 278 NONAME ; class RPointerArray<class CMceMediaSink> const & CMceMediaStream::Sinks(void) const
	?Source@CMceMediaStream@@QBEPAVCMceMediaSource@@XZ @ 279 NONAME ; class CMceMediaSource * CMceMediaStream::Source(void) const
	?Ssrc@CMceRtpSink@@QBEKXZ @ 280 NONAME ; unsigned long CMceRtpSink::Ssrc(void) const
	?Ssrc@CMceRtpSource@@QBEKXZ @ 281 NONAME ; unsigned long CMceRtpSource::Ssrc(void) const
	?Ssrcs@CMceRtpSource@@QBEABV?$RArray@I@@XZ @ 282 NONAME ; class RArray<unsigned int> const & CMceRtpSource::Ssrcs(void) const
	?State@CMceCodec@@QBE?AW4TState@1@XZ @ 283 NONAME ; enum CMceCodec::TState CMceCodec::State(void) const
	?State@CMceMediaStream@@QBE?AW4TState@1@XZ @ 284 NONAME ; enum CMceMediaStream::TState CMceMediaStream::State(void) const
	?State@CMceSession@@QBE?AW4TState@1@XZ @ 285 NONAME ; enum CMceSession::TState CMceSession::State(void) const
	?Streams@CMceSession@@QBEABV?$RPointerArray@VCMceMediaStream@@@@XZ @ 286 NONAME ; class RPointerArray<class CMceMediaStream> const & CMceSession::Streams(void) const
	?Streams@CMceStreamBundle@@QAEABV?$RPointerArray@VCMceMediaStream@@@@XZ @ 287 NONAME ; class RPointerArray<class CMceMediaStream> const & CMceStreamBundle::Streams(void)
	?SupportedAudioCodecs@CMceManager@@QBEABV?$RPointerArray@$$CBVCMceAudioCodec@@@@XZ @ 288 NONAME ; class RPointerArray<class CMceAudioCodec const > const & CMceManager::SupportedAudioCodecs(void) const
	?SupportedProfileTypesL@CSIPProfileRegistryBase@@QAEXAAV?$RArray@VTSIPProfileTypeInfo@@@@@Z @ 289 NONAME ; void CSIPProfileRegistryBase::SupportedProfileTypesL(class RArray<class TSIPProfileTypeInfo> &)
	?SupportedSecurityMechanismsL@CSIP@@QBEPAVCDesC8Array@@XZ @ 290 NONAME ; class CDesC8Array * CSIP::SupportedSecurityMechanismsL(void) const
	?SupportedVideoCodecs@CMceManager@@QBEABV?$RPointerArray@$$CBVCMceVideoCodec@@@@XZ @ 291 NONAME ; class RPointerArray<class CMceVideoCodec const > const & CMceManager::SupportedVideoCodecs(void) const
	?SupportedVideoCodecs@CMceVideoStream@@QBEABV?$RPointerArray@$$CBVCMceVideoCodec@@@@XZ @ 292 NONAME ; class RPointerArray<class CMceVideoCodec const > const & CMceVideoStream::SupportedVideoCodecs(void) const
	?TerminateL@CMceSession@@QAEXPAVCDesC8Array@@PAVHBufC8@@1@Z @ 293 NONAME ; void CMceSession::TerminateL(class CDesC8Array *, class HBufC8 *, class HBufC8 *)
	?TranscodeL@CMceFileSource@@QAEXABV?$TBuf@$0BAA@@@@Z @ 294 NONAME ; void CMceFileSource::TranscodeL(class TBuf<256> const &)
	?TranscodingProgressL@CMceFileSource@@QBEHXZ @ 295 NONAME ; int CMceFileSource::TranscodingProgressL(void) const
	?Type@CMceCodec@@QBEIXZ @ 296 NONAME ; unsigned int CMceCodec::Type(void) const
	?Type@CMceMediaSink@@QBEIXZ @ 297 NONAME ; unsigned int CMceMediaSink::Type(void) const
	?Type@CMceMediaSource@@QBEIXZ @ 298 NONAME ; unsigned int CMceMediaSource::Type(void) const
	?Type@CMceMediaStream@@QBEIXZ @ 299 NONAME ; unsigned int CMceMediaStream::Type(void) const
	?Type@CMceStreamBundle@@QBE?AW4TMceStreamBundleType@1@XZ @ 300 NONAME ; enum CMceStreamBundle::TMceStreamBundleType CMceStreamBundle::Type(void) const
	?Type@CSIPProfile@@QBEABVTSIPProfileTypeInfo@@XZ @ 301 NONAME ; class TSIPProfileTypeInfo const & CSIPProfile::Type(void) const
	?UpdateL@CMceFileSource@@QAEXABV?$TBuf@$0BAA@@@@Z @ 302 NONAME ; void CMceFileSource::UpdateL(class TBuf<256> const &)
	?UpdateL@CMceRtpSink@@QAEXHPAVHBufC8@@@Z @ 303 NONAME ; void CMceRtpSink::UpdateL(int, class HBufC8 *)
	?UpdateL@CMceRtpSource@@QAEXIIKPAVHBufC8@@@Z @ 304 NONAME ; void CMceRtpSource::UpdateL(unsigned int, unsigned int, unsigned long, class HBufC8 *)
	?UpdateL@CMceSession@@QAEXKPAVCDesC8Array@@PAVHBufC8@@10@Z @ 305 NONAME ; void CMceSession::UpdateL(unsigned long, class CDesC8Array *, class HBufC8 *, class HBufC8 *, class CDesC8Array *)
	?VolumeL@CMceSpeakerSink@@QBEHXZ @ 306 NONAME ; int CMceSpeakerSink::VolumeL(void) const
	?WhiteBalanceL@CMceCameraSource@@QAE?AW4TWhiteBalance@CCamera@@XZ @ 307 NONAME ; enum CCamera::TWhiteBalance CMceCameraSource::WhiteBalanceL(void)
	?ZoomFactorL@CMceCameraSource@@QAEHXZ @ 308 NONAME ; int CMceCameraSource::ZoomFactorL(void)

