EXPORTS
	?CreateTestSuiteL@@YAPAVMEUnitTest@@XZ @ 1 NONAME ; class MEUnitTest * CreateTestSuiteL(void)
	?CameraSupported@FeatureManager@@SAXXZ @ 2 NONAME ; void FeatureManager::CameraSupported(void)
	?NewL@CAknGlobalNote@@SAPAV1@XZ @ 3 NONAME ; class CAknGlobalNote * CAknGlobalNote::NewL(void)
	?KillTask@TApaTask@@QAEXXZ @ 4 NONAME ; void TApaTask::KillTask(void)
	?FindDoc@TApaTaskList@@QAE?AVTApaTask@@ABVTDesC16@@@Z @ 5 NONAME ; class TApaTask TApaTaskList::FindDoc(class TDesC16 const &)
	??0TApaTaskList@@QAE@AAVRWsSession@@@Z @ 6 NONAME ; TApaTaskList::TApaTaskList(class RWsSession &)
	?FindApp@TApaTaskList@@QAE?AVTApaTask@@VTUid@@@Z @ 7 NONAME ; class TApaTask TApaTaskList::FindApp(class TUid)
	?Close@RWsSession@@QAEXXZ @ 8 NONAME ; void RWsSession::Close(void)
	?OpenL@RResourceFile@@QAEXAAVRFs@@ABVTDesC16@@@Z @ 9 NONAME ; void RResourceFile::OpenL(class RFs &, class TDesC16 const &)
	??0RResourceFile@@QAE@XZ @ 10 NONAME ; RResourceFile::RResourceFile(void)
	?NewLC@CAknGlobalNote@@SAPAV1@XZ @ 11 NONAME ; class CAknGlobalNote * CAknGlobalNote::NewLC(void)
	?CancelNoteL@CAknGlobalNote@@QAEXH@Z @ 12 NONAME ; void CAknGlobalNote::CancelNoteL(int)
	?EndTask@TApaTask@@QAEXXZ @ 13 NONAME ; void TApaTask::EndTask(void)
	?CameraNotSupported@FeatureManager@@SAXXZ @ 14 NONAME ; void FeatureManager::CameraNotSupported(void)
	?BringToForeground@TApaTask@@QAEXXZ @ 15 NONAME ; void TApaTask::BringToForeground(void)
	?SendToBackground@TApaTask@@QAEXXZ @ 16 NONAME ; void TApaTask::SendToBackground(void)
	?Close@RResourceFile@@QAEXXZ @ 17 NONAME ; void RResourceFile::Close(void)
	?AllocReadL@RResourceFile@@QBEPAVHBufC8@@H@Z @ 18 NONAME ; class HBufC8 * RResourceFile::AllocReadL(int) const
	?Exists@TApaTask@@QAEHXZ @ 19 NONAME ; int TApaTask::Exists(void)
	??0TApaTask@@QAE@AAVRWsSession@@@Z @ 20 NONAME ; TApaTask::TApaTask(class RWsSession &)
	?FeatureSupported@FeatureManager@@SAHH@Z @ 21 NONAME ; int FeatureManager::FeatureSupported(int)
	?ShowNoteL@CAknGlobalNote@@QAEHW4TAknGlobalNoteType@@ABVTDesC16@@@Z @ 22 NONAME ; int CAknGlobalNote::ShowNoteL(enum TAknGlobalNoteType, class TDesC16 const &)
	?Connect@RWsSession@@QAEHXZ @ 23 NONAME ; int RWsSession::Connect(void)
	?SetTextProcessing@CAknGlobalNote@@QAEXH@Z @ 24 NONAME ; void CAknGlobalNote::SetTextProcessing(int)
	??0MWsClientClass@@QAE@XZ @ 25 NONAME ; MWsClientClass::MWsClientClass(void)
	??0RWsSession@@QAE@XZ @ 26 NONAME ; RWsSession::RWsSession(void)
	?FindApp@TApaTaskList@@QAE?AVTApaTask@@ABVTDesC16@@@Z @ 27 NONAME ; class TApaTask TApaTaskList::FindApp(class TDesC16 const &)
	??1CAknGlobalNote@@UAE@XZ @ 28 NONAME ; CAknGlobalNote::~CAknGlobalNote(void)
	?FindByPos@TApaTaskList@@QAE?AVTApaTask@@H@Z @ 29 NONAME ; class TApaTask TApaTaskList::FindByPos(int)
	?ShowNoteL@CAknGlobalNote@@QAEHAAVTRequestStatus@@W4TAknGlobalNoteType@@ABVTDesC16@@@Z @ 30 NONAME ; int CAknGlobalNote::ShowNoteL(class TRequestStatus &, enum TAknGlobalNoteType, class TDesC16 const &)
	?ImplementationGroupProxy@@YAPBUTImplementationProxy@@AAH@Z @ 31 NONAME ; struct TImplementationProxy const * ImplementationGroupProxy(int &)

